Bird Computer dasm68 dissassembler    version 1.0   Sat Jan 27 18:34:32 2024     Page 1

00000000   4afb 0001                        TAS       (D_01,PC,D0.W)
00000004   0030 0040 0026                   OR.B      #0x40,(D_26,A0,D0.W)
0000000A   5355                             SUBQ.W    #1,(A5)
0000000C   4343                             DATA.W    0x4343  ; Unrecognized
0000000E   4553                             DATA.W    0x4553  ; Unrecognized
00000010   5320                             SUBQ.B    #1,-(A0)
00000012   7f20                             MOVEQ     #0x20,D7
00000014   3139 3838 2044                   MOVE.W    A_38382044,-(A0)
0000001A   6967                             BVS       B_83
0000001C   6974                             BVS       B_92
0000001E   616c                             BSR.S     B_8c
00000020   2050                             MOVE      (A0),A0
00000022   7265                             MOVEQ     #0x65,D1
00000024   6369                             BLS       B_8f
00000026   7369                             MOVEQ     #0x69,D1
00000028   6f6e                             BLE       B_98
0000002A   2056                             MOVE      (A6),A0
0000002C   312e 300a                        MOVE.W    (D_300a,A6),-(A0)
00000030   0001 0010                        OR.B      #0x10,D1
00000034   0547                             BCHG      D2,D7
00000036   4f43                             DATA.W    0x4f43  ; Unrecognized
00000038   504d                             ADDQ.W    #8,A5
0000003A   0000 0000                        OR.B      #0x0,D0
0000003E   0000 4e75                        OR.B      #0x4e75,D0
00000042   41fa 1e9a                        LEA       (D_1e9a,PC),A0
00000046   7001                             MOVEQ     #0x1,D0
00000048   7600                             MOVEQ     #0x0,D3
0000004A   72ff                             MOVEQ     #0xff,D1
0000004C   4e42                             TRAP      #2
0000004E   4a80                             TST       D0
00000050   670c                             BEQ       B_5e
00000052   41fa 1e9a                        LEA       (D_1e9a,PC),A0
00000056   2008                             MOVE      A0,D0
00000058   08c0 001f                        BSET      #31,D0
0000005C   4e75                             RTS
0000005E   2a08                             MOVE      A0,D5
00000060   7000                             MOVEQ     #0x0,D0
00000062   4e40                             TRAP      #0
00000064   7001                             MOVEQ     #0x1,D0
00000066   243c 0001 1000                   MOVE      #0x00011000,D2
0000006C   7600                             MOVEQ     #0x0,D3
0000006E   93c9                             SUBA      A1,A1
00000070   4e41                             TRAP      #1
00000072   4a80                             TST       D0
00000074   670c                             BEQ       B_82
00000076   2f00                             MOVE      D0,-(A7)
00000078   2045                             MOVE      D5,A0
0000007A   7002                             MOVEQ     #0x2,D0
0000007C   4e42                             TRAP      #2
0000007E   201f                             MOVE      (A7)+,D0
00000080   4e75                             RTS
00000082   49fa 1e8e                        LEA       (D_1e8e,PC),A4
00000086   4294                             CLR       (A4)
00000088   4a94                             TST       (A4)
0000008A   6606                             BNE       B_92
0000008C   5394                             SUBQ      #1,(A4)
0000008E   4a94                             TST       (A4)
00000090   6b04                             BMI       B_96

Bird Computer dasm68 dissassembler    version 1.0   Sat Jan 27 18:34:32 2024     Page 2

00000092   49e8 0f00                        LEA       (D_0f00,A0),A4
00000096   705a                             MOVEQ     #0x5a,D0
00000098   224c                             MOVE      A4,A1
0000009A   4299                             CLR       (A1)+
0000009C   51c8 fffc                        DBF       D0,B_1009a
000000A0   4be8 1000                        LEA       (D_1000,A0),A5
000000A4   2045                             MOVE      D5,A0
000000A6   43ed f000                        LEA       (D_f000,A5),A1
000000AA   7003                             MOVEQ     #0x3,D0
000000AC   343c 1000                        MOVE.W    #0x1000,D2
000000B0   76ff                             MOVEQ     #0xff,D3
000000B2   4e43                             TRAP      #3
000000B4   7002                             MOVEQ     #0x2,D0
000000B6   4e42                             TRAP      #2
000000B8   204d                             MOVE      A5,A0
000000BA   303c 3fff                        MOVE.W    #0x3fff,D0
000000BE   4298                             CLR       (A0)+
000000C0   51c8 fffc                        DBF       D0,B_100be
000000C4   4280                             CLR       D0
000000C6   4281                             CLR       D1
000000C8   4285                             CLR       D5
000000CA   4284                             CLR       D4
000000CC   4287                             CLR       D7
000000CE   4286                             CLR       D6
000000D0   45fa 190a                        LEA       (D_190a,PC),A2
000000D4   4ead f000                        JSR       (D_f000,A5)
000000D8   4283                             CLR       D3
000000DA   43fa 0002                        LEA       (D_0002,PC),A1
000000DE   7000                             MOVEQ     #0x0,D0
000000E0   101e                             MOVE.B    (A6)+,D0
000000E2   d040                             ADD.W     D0,D0
000000E4   41fb 0044                        LEA       (D_44,PC,D0.W),A0
000000E8   d0d0                             ADDA.W    (A0),A0
000000EA   4ed0                             JMP       (A0)
000000EC   3f05                             MOVE.W    D5,-(A7)
000000EE   3a2c 0008                        MOVE.W    (D_0008,A4),D5
000000F2   43fa 0012                        LEA       (D_0012,PC),A1
000000F6   4280                             CLR       D0
000000F8   101e                             MOVE.B    (A6)+,D0
000000FA   e348                             LSL.W     #1,D0
000000FC   41fb 002c                        LEA       (D_2c,PC,D0.W),A0
00000100   d0d0                             ADDA.W    (A0),A0
00000102   4280                             CLR       D0
00000104   4ed0                             JMP       (A0)
00000106   3945 0008                        MOVE.W    D5,(D_0008,A4)
0000010A   3a1f                             MOVE.W    (A7)+,D5
0000010C   43fa ffd0                        LEA       (D_ffd0,PC),A1
00000110   4ed1                             JMP       (A1)
00000112   3f05                             MOVE.W    D5,-(A7)
00000114   3a2c 000a                        MOVE.W    (D_000a,A4),D5
00000118   43fa 0004                        LEA       (D_0004,PC),A1
0000011C   60d8                             BRA       B_f6
0000011E   3945 000a                        MOVE.W    D5,(D_000a,A4)
00000122   3a1f                             MOVE.W    (A7)+,D5
00000124   43fa ffb8                        LEA       (D_ffb8,PC),A1
00000128   4ed1                             JMP       (A1)
0000012A   0200 0200                        AND.B     #0x200,D0
0000012E   0206 020a                        AND.B     #0x20a,D6

Bird Computer dasm68 dissassembler    version 1.0   Sat Jan 27 18:34:32 2024     Page 3

00000132   020c 021c                        AND.B     #0x21c,A4
00000136   022c 0232 023c                   AND.B     #0x232,(D_023c,A4)
0000013C   0250 0256                        AND.W     #0x256,(A0)
00000140   025a 025c                        AND.W     #0x25c,(A2)+
00000144   0268 0274 0276                   AND.W     #0x274,(D_0276,A0)
0000014A   0280 028c 0292                   AND       #0x28c0292,D0
00000150   0296 0298 02a8                   AND       #0x29802a8,(A6)
00000156   02b8 02be 02c4 02ea              AND       #0x2be02c4,A_02ea.W
0000015E   02f0 02f4 02f6                   AND.?     #0x2f4,(D_f6,A0,D0.W*2)
00000164   0302                             BTST      D1,D2
00000166   030e 0310                        MOVEP.W   (0x310,A6),D1
0000016A   02bc 0314 031a 032a 032c         AND       #0x314031a,#032A032C
00000174   033c 034c                        BTST      D1,#034C
00000178   0352                             BCHG      D1,(A2)
0000017A   02b4 0396 039c 03ac 03ae         AND       #0x396039c,(D_03ae,D0.W*2)
00000184   03ba 03c6                        BCLR      D1,(D_03c6,PC)
00000188   03c8 02ac                        MOVEP     D1,(0x2ac,A0)
0000018C   03c8 03d2                        MOVEP     D1,(0x3d2,A0)
00000190   03dc                             BSET      D1,(A4)+
00000192   03de                             BSET      D1,(A6)+
00000194   0404 042a                        SUB.B     #0x42a,D4
00000198   043c 02a4 043e                   SUB.B     #0x2a4,#043E
0000019E   0448 0452                        SUB.W     #0x452,A0
000001A2   0454 0464                        SUB.W     #0x464,(A4)
000001A6   0474 0476 047a                   SUB.W     #0x476,(D_7a,A4,D0.W*4)
000001AC   047a 0480 0486                   SUB.W     #0x480,(D_0486,PC)
000001B2   048c 0492 0498                   SUB       #0x4920498,A4
000001B8   04b2 04b8 04bc 04bc              SUB       #0x4b804bc,(D_bc,A2,D0.W*4)
000001C0   04c0 04c2                        SUB.?     #0x4c2,D0
000001C4   04c6 04c8                        SUB.?     #0x4c8,D6
000001C8   04da 04dc                        SUB.?     #0x4dc,(A2)+
000001CC   04e2 04e8                        SUB.?     #0x4e8,-(A2)
000001D0   04e8 04ee 04f4                   SUB.?     #0x4ee,(D_04f4,A0)
000001D6   04fa 0514 051a                   SUB.?     #0x514,(D_051a,PC)
000001DC   051e                             BTST      D2,(A6)+
000001DE   0520                             BTST      D2,-(A0)
000001E0   0524                             BTST      D2,-(A4)
000001E2   0524                             BTST      D2,-(A4)
000001E4   0528 052a                        BTST      D2,(D_052a,A0)
000001E8   053c 053e                        BTST      D2,#053E
000001EC   0544                             BCHG      D2,D4
000001EE   054a 0550                        MOVEP     (0x550,A2),D2
000001F2   0556                             BCHG      D2,(A6)
000001F4   0556                             BCHG      D2,(A6)
000001F6   055c                             BCHG      D2,(A4)+
000001F8   0572 0578 057c 057e              BCHG      D2,(D_057c057e,A2)
00000200   0582                             BCLR      D2,D2
00000202   0584                             BCLR      D2,D4
00000204   0588 0588                        MOVEP.W   D2,(0x588,A0)
00000208   059c                             BCLR      D2,(A4)+
0000020A   059e                             BCLR      D2,(A6)+
0000020C   05b4 05c6 05dc                   BCLR      D2,([????]D_05dc)
00000212   05ee 0602                        BSET      D2,(D_0602,A6)
00000216   0616 0618                        ADD.B     #0x618,(A6)
0000021A   062a 062e 0630                   ADD.B     #0x62e,(D_0630,A2)
00000220   0634 0636 063a                   ADD.B     #0x636,(D_3a,A4,D0.W*8)
00000226   063c 064e 064e                   ADD.B     #0x64e,#064E
0000022C   0658 0660                        ADD.W     #0x660,(A0)+

Bird Computer dasm68 dissassembler    version 1.0   Sat Jan 27 18:34:32 2024     Page 4

00000230   066a 0672 067c                   ADD.W     #0x672,(D_067c,A2)
00000236   0684 06a2 06aa                   ADD       #0x6a206aa,D4
0000023C   06b8 06c4 06d2 06de              ADD       #0x6c406d2,A_06de.W
00000244   06ec 06f8 071e                   ADD.?     #0x6f8,(D_071e,A4)
0000024A   072a 0734                        BTST      D3,(D_0734,A2)
0000024E   073c 0746                        BTST      D3,#0746
00000252   074e 0758                        MOVEP     (0x758,A6),D3
00000256   0760                             BCHG      D3,-(A0)
00000258   077e                             BCHG      D3,????
0000025A   0786                             BCLR      D3,D6
0000025C   0794                             BCLR      D3,(A4)
0000025E   07a0                             BCLR      D3,-(A0)
00000260   07ae 07ba                        BCLR      D3,(D_07ba,A6)
00000264   07c8 07d4                        MOVEP     D3,(0x7d4,A0)
00000268   07fa 0806                        BSET      D3,(D_0806,PC)
0000026C   080e 0814                        BTST      #2068,A6
00000270   081c 0822                        BTST      #2082,(A4)+
00000274   082a 0830 084a                   BTST      #2096,(D_084a,A2)
0000027A   0850 085a                        BCHG      #2138,(A0)
0000027E   0860 086a                        BCHG      #2154,-(A0)
00000282   0870 087a 0880                   BCHG      #2170,(D_80,A0,D0.L)
00000288   089e 08a4                        BCLR      #2212,(A6)+
0000028C   08ac 08b2 08ba                   BCLR      #2226,(D_08ba,A4)
00000292   08c0 08c8                        BSET      #2248,D0
00000296   08ce 08e8                        BSET      #2280,A6
0000029A   08ee 08f4 08f8                   BSET      #2292,(D_08f8,A6)
000002A0   08fe 0902                        BSET      #2306,????
000002A4   0908 090c                        MOVEP.W   (0x90c,A0),D4
000002A8   0922                             BTST      D4,-(A2)
000002AA   0a4c 0924                        EOR.W     #0x924,A4
000002AE   0950                             BCHG      D4,(A0)
000002B0   098a 0994                        MOVEP.W   D4,(0x994,A2)
000002B4   09e2                             BSET      D4,-(A2)
000002B6   0a04 0a0c                        EOR.B     #0xa0c,D4
000002BA   0a42 0a68                        EOR.W     #0xa68,D2
000002BE   0948 0a70                        MOVEP     (0xa70,A0),D4
000002C2   099c                             BCLR      D4,(A4)+
000002C4   0986                             BCLR      D4,D6
000002C6   0a96 0a00 0a38                   EOR       #0xa000a38,(A6)
000002CC   090c 0940                        MOVEP.W   (0x940,A4),D4
000002D0   0a9a 0994 09ca                   EOR       #0x99409ca,(A2)+
000002D6   0aa8 09f4 0a2e 0aac              EOR       #0x9f40a2e,(D_0aac,A0)
000002DE   0938 0ac8                        BTST      D4,A_0ac8.W
000002E2   098c fe08                        MOVEP.W   D4,(0xfe08,A4)
000002E6   0ad6 09e8                        EOR.?     #0x9e8,(A6)
000002EA   0a24 08f4                        EOR.B     #0x8f4,-(A4)
000002EE   0930 0ada                        BTST      D4,(D_da,A0,D0.L*2)
000002F2   0984                             BCLR      D4,D4
000002F4   09b2 0ae4                        BCLR      D4,(D_e4,A2,D0.L*2)
000002F8   09dc                             BSET      D4,(A4)+
000002FA   0a1a 0ae6                        EOR.B     #0xae6,(A2)+
000002FE   0928 0ae8                        BTST      D4,(D_0ae8,A0)
00000302   097c 0ae8                        BCHG      D4,#0AE8
00000306   0b04                             BTST      D5,D4
00000308   09d0                             BSET      D4,(A0)
0000030A   0a10 08dc                        EOR.B     #0x8dc,(A0)
0000030E   0920                             BTST      D4,-(A0)
00000310   0b04                             BTST      D5,D4

Bird Computer dasm68 dissassembler    version 1.0   Sat Jan 27 18:34:32 2024     Page 5

00000312   0974 099a 0b00                   BCHG      D4,([D0.L]D_0b00)
00000318   09c4                             BSET      D4,D4
0000031A   0a06 0b02                        EOR.B     #0xb02,D6
0000031E   0918                             BTST      D4,(A0)+
00000320   0b04                             BTST      D5,D4
00000322   096c fdee                        BCHG      D4,(D_fdee,A4)
00000326   0b00                             BTST      D5,D0
00000328   09b8 4ed1                        BCLR      D4,A_4ed1.W
0000032C   191e                             MOVE.B    (A6)+,-(A4)
0000032E   191e                             MOVE.B    (A6)+,-(A4)
00000330   381c                             MOVE.W    (A4)+,D4
00000332   4ed1                             JMP       (A1)
00000334   1b87 4800                        MOVE.B    D7,(D_00,A5,D4.L)
00000338   4ed1                             JMP       (A1)
0000033A   5244                             ADDQ.W    #1,D4
0000033C   4ed1                             JMP       (A1)
0000033E   3884                             MOVE.W    D4,(A4)
00000340   5214                             ADDQ.B    #1,(A4)
00000342   40c0                             MOVE      SR,D0
00000344   3814                             MOVE.W    (A4),D4
00000346   cc12                             AND.B     (A2),D6
00000348   0200 00fe                        AND.B     #0xfe,D0
0000034C   8c00                             OR.B      D0,D6
0000034E   4ed1                             JMP       (A1)
00000350   3884                             MOVE.W    D4,(A4)
00000352   5314                             SUBQ.B    #1,(A4)
00000354   40c0                             MOVE      SR,D0
00000356   3814                             MOVE.W    (A4),D4
00000358   cc12                             AND.B     (A2),D6
0000035A   0200 00fe                        AND.B     #0xfe,D0
0000035E   8c00                             OR.B      D0,D6
00000360   4ed1                             JMP       (A1)
00000362   1904                             MOVE.B    D4,-(A4)
00000364   191e                             MOVE.B    (A6)+,-(A4)
00000366   381c                             MOVE.W    (A4)+,D4
00000368   4ed1                             JMP       (A1)
0000036A   e20e                             LSR.B     #1,D6
0000036C   e31f                             ROL.B     #1,D7
0000036E   40c0                             MOVE      SR,D0
00000370   e208                             LSR.B     #1,D0
00000372   e316                             ROXL.B    #1,D6
00000374   4ed1                             JMP       (A1)
00000376   102c 0012                        MOVE.B    (D_0012,A4),D0
0000037A   1947 0012                        MOVE.B    D7,(D_0012,A4)
0000037E   1e00                             MOVE.B    D0,D7
00000380   102c 0013                        MOVE.B    (D_0013,A4),D0
00000384   1946 0013                        MOVE.B    D6,(D_0013,A4)
00000388   1c00                             MOVE.B    D0,D6
0000038A   4ed1                             JMP       (A1)
0000038C   e20e                             LSR.B     #1,D6
0000038E   da44                             ADD.W     D4,D5
00000390   e316                             ROXL.B    #1,D6
00000392   4ed1                             JMP       (A1)
00000394   1e35 4800                        MOVE.B    (D_00,A5,D4.L),D7
00000398   4ed1                             JMP       (A1)
0000039A   5344                             SUBQ.W    #1,D4
0000039C   4ed1                             JMP       (A1)
0000039E   5204                             ADDQ.B    #1,D4

Bird Computer dasm68 dissassembler    version 1.0   Sat Jan 27 18:34:32 2024     Page 6

000003A0   40c0                             MOVE      SR,D0
000003A2   cc12                             AND.B     (A2),D6
000003A4   0200 00fe                        AND.B     #0xfe,D0
000003A8   8c00                             OR.B      D0,D6
000003AA   4ed1                             JMP       (A1)
000003AC   5304                             SUBQ.B    #1,D4
000003AE   40c0                             MOVE      SR,D0
000003B0   cc12                             AND.B     (A2),D6
000003B2   0200 00fe                        AND.B     #0xfe,D0
000003B6   8c00                             OR.B      D0,D6
000003B8   4ed1                             JMP       (A1)
000003BA   181e                             MOVE.B    (A6)+,D4
000003BC   4ed1                             JMP       (A1)
000003BE   e20e                             LSR.B     #1,D6
000003C0   e21f                             ROR.B     #1,D7
000003C2   40c0                             MOVE      SR,D0
000003C4   e208                             LSR.B     #1,D0
000003C6   e316                             ROXL.B    #1,D6
000003C8   4ed1                             JMP       (A1)
000003CA   101e                             MOVE.B    (A6)+,D0
000003CC   0444 0100                        SUB.W     #0x100,D4
000003D0   3884                             MOVE.W    D4,(A4)
000003D2   4a14                             TST.B     (A4)
000003D4   664a                             BNE       B_420
000003D6   4ed1                             JMP       (A1)
000003D8   191e                             MOVE.B    (A6)+,-(A4)
000003DA   191e                             MOVE.B    (A6)+,-(A4)
000003DC   361c                             MOVE.W    (A4)+,D3
000003DE   4ed1                             JMP       (A1)
000003E0   1b87 3800                        MOVE.B    D7,(D_00,A5,D3.L)
000003E4   4ed1                             JMP       (A1)
000003E6   5243                             ADDQ.W    #1,D3
000003E8   4ed1                             JMP       (A1)
000003EA   3883                             MOVE.W    D3,(A4)
000003EC   5214                             ADDQ.B    #1,(A4)
000003EE   40c0                             MOVE      SR,D0
000003F0   3614                             MOVE.W    (A4),D3
000003F2   cc12                             AND.B     (A2),D6
000003F4   0200 00fe                        AND.B     #0xfe,D0
000003F8   8c00                             OR.B      D0,D6
000003FA   4ed1                             JMP       (A1)
000003FC   3883                             MOVE.W    D3,(A4)
000003FE   5314                             SUBQ.B    #1,(A4)
00000400   40c0                             MOVE      SR,D0
00000402   3614                             MOVE.W    (A4),D3
00000404   cc12                             AND.B     (A2),D6
00000406   0200 00fe                        AND.B     #0xfe,D0
0000040A   8c00                             OR.B      D0,D6
0000040C   4ed1                             JMP       (A1)
0000040E   1903                             MOVE.B    D3,-(A4)
00000410   191e                             MOVE.B    (A6)+,-(A4)
00000412   361c                             MOVE.W    (A4)+,D3
00000414   4ed1                             JMP       (A1)
00000416   e216                             ROXR.B    #1,D6
00000418   e317                             ROXL.B    #1,D7
0000041A   e316                             ROXL.B    #1,D6
0000041C   4ed1                             JMP       (A1)
0000041E   101e                             MOVE.B    (A6)+,D0

Bird Computer dasm68 dissassembler    version 1.0   Sat Jan 27 18:34:32 2024     Page 7

00000420   4880                             EXT.W     D0
00000422   dcc0                             ADDA.W    D0,A6
00000424   4ed1                             JMP       (A1)
00000426   101e                             MOVE.B    (A6)+,D0
00000428   44c6                             MOVE      D6,CCR
0000042A   66f4                             BNE       B_420
0000042C   4ed1                             JMP       (A1)
0000042E   101e                             MOVE.B    (A6)+,D0
00000430   44c6                             MOVE      D6,CCR
00000432   67ec                             BEQ       B_420
00000434   4ed1                             JMP       (A1)
00000436   101e                             MOVE.B    (A6)+,D0
00000438   44c6                             MOVE      D6,CCR
0000043A   64e4                             BCC       B_420
0000043C   4ed1                             JMP       (A1)
0000043E   101e                             MOVE.B    (A6)+,D0
00000440   44c6                             MOVE      D6,CCR
00000442   65dc                             BCS       B_420
00000444   4ed1                             JMP       (A1)
00000446   e20e                             LSR.B     #1,D6
00000448   da43                             ADD.W     D3,D5
0000044A   e316                             ROXL.B    #1,D6
0000044C   4ed1                             JMP       (A1)
0000044E   1e35 3800                        MOVE.B    (D_00,A5,D3.L),D7
00000452   4ed1                             JMP       (A1)
00000454   5343                             SUBQ.W    #1,D3
00000456   4ed1                             JMP       (A1)
00000458   5203                             ADDQ.B    #1,D3
0000045A   40c0                             MOVE      SR,D0
0000045C   cc12                             AND.B     (A2),D6
0000045E   0200 00fe                        AND.B     #0xfe,D0
00000462   8c00                             OR.B      D0,D6
00000464   4ed1                             JMP       (A1)
00000466   5303                             SUBQ.B    #1,D3
00000468   40c0                             MOVE      SR,D0
0000046A   cc12                             AND.B     (A2),D6
0000046C   0200 00fe                        AND.B     #0xfe,D0
00000470   8c00                             OR.B      D0,D6
00000472   4ed1                             JMP       (A1)
00000474   161e                             MOVE.B    (A6)+,D3
00000476   4ed1                             JMP       (A1)
00000478   e20e                             LSR.B     #1,D6
0000047A   e217                             ROXR.B    #1,D7
0000047C   e316                             ROXL.B    #1,D6
0000047E   4ed1                             JMP       (A1)
00000480   191e                             MOVE.B    (A6)+,-(A4)
00000482   191e                             MOVE.B    (A6)+,-(A4)
00000484   3a1c                             MOVE.W    (A4)+,D5
00000486   4ed1                             JMP       (A1)
00000488   191e                             MOVE.B    (A6)+,-(A4)
0000048A   191e                             MOVE.B    (A6)+,-(A4)
0000048C   301c                             MOVE.W    (A4)+,D0
0000048E   41f5 0800                        LEA       (D_00,A5,D0.L),A0
00000492   3885                             MOVE.W    D5,(A4)
00000494   10c5                             MOVE.B    D5,(A0)+
00000496   1094                             MOVE.B    (A4),(A0)
00000498   4ed1                             JMP       (A1)
0000049A   5245                             ADDQ.W    #1,D5

Bird Computer dasm68 dissassembler    version 1.0   Sat Jan 27 18:34:32 2024     Page 8

0000049C   4ed1                             JMP       (A1)
0000049E   3885                             MOVE.W    D5,(A4)
000004A0   5214                             ADDQ.B    #1,(A4)
000004A2   40c0                             MOVE      SR,D0
000004A4   3a14                             MOVE.W    (A4),D5
000004A6   cc12                             AND.B     (A2),D6
000004A8   0200 00fe                        AND.B     #0xfe,D0
000004AC   8c00                             OR.B      D0,D6
000004AE   4ed1                             JMP       (A1)
000004B0   3885                             MOVE.W    D5,(A4)
000004B2   5314                             SUBQ.B    #1,(A4)
000004B4   40c0                             MOVE      SR,D0
000004B6   3a14                             MOVE.W    (A4),D5
000004B8   cc12                             AND.B     (A2),D6
000004BA   0200 00fe                        AND.B     #0xfe,D0
000004BE   8c00                             OR.B      D0,D6
000004C0   4ed1                             JMP       (A1)
000004C2   1905                             MOVE.B    D5,-(A4)
000004C4   191e                             MOVE.B    (A6)+,-(A4)
000004C6   3a1c                             MOVE.W    (A4)+,D5
000004C8   4ed1                             JMP       (A1)
000004CA   1007                             MOVE.B    D7,D0
000004CC   0200 000f                        AND.B     #0xf,D0
000004D0   0c00 0009                        CMP.B     #0x9,D0
000004D4   6210                             BHI       B_4e6
000004D6   0202 000f                        AND.B     #0xf,D2
000004DA   0201 000f                        AND.B     #0xf,D1
000004DE   0001 00f0                        OR.B      #0xf0,D1
000004E2   d202                             ADD.B     D2,D1
000004E4   6406                             BCC       B_4ec
000004E6   0607 0006                        ADD.B     #0x6,D7
000004EA   6512                             BCS       B_4fe
000004EC   0806 0000                        BTST      #0,D6
000004F0   660c                             BNE       B_4fe
000004F2   1007                             MOVE.B    D7,D0
000004F4   0200 00f0                        AND.B     #0xf0,D0
000004F8   0c00 0090                        CMP.B     #0x90,D0
000004FC   6310                             BLS       B_50e
000004FE   0607 0060                        ADD.B     #0x60,D7
00000502   003c 0001                        OR        #0x1,CCR
00000506   40c6                             MOVE      SR,D6
00000508   4281                             CLR       D1
0000050A   4282                             CLR       D2
0000050C   4ed1                             JMP       (A1)
0000050E   4a07                             TST.B     D7
00000510   60f4                             BRA       B_506
00000512   e20e                             LSR.B     #1,D6
00000514   da45                             ADD.W     D5,D5
00000516   e316                             ROXL.B    #1,D6
00000518   4ed1                             JMP       (A1)
0000051A   191e                             MOVE.B    (A6)+,-(A4)
0000051C   191e                             MOVE.B    (A6)+,-(A4)
0000051E   301c                             MOVE.W    (A4)+,D0
00000520   41f5 0800                        LEA       (D_00,A5,D0.L),A0
00000524   1918                             MOVE.B    (A0)+,-(A4)
00000526   1910                             MOVE.B    (A0),-(A4)
00000528   3a1c                             MOVE.W    (A4)+,D5
0000052A   4ed1                             JMP       (A1)

Bird Computer dasm68 dissassembler    version 1.0   Sat Jan 27 18:34:32 2024     Page 9

0000052C   5345                             SUBQ.W    #1,D5
0000052E   4ed1                             JMP       (A1)
00000530   5205                             ADDQ.B    #1,D5
00000532   40c0                             MOVE      SR,D0
00000534   cc12                             AND.B     (A2),D6
00000536   0200 00fe                        AND.B     #0xfe,D0
0000053A   8c00                             OR.B      D0,D6
0000053C   4ed1                             JMP       (A1)
0000053E   5305                             SUBQ.B    #1,D5
00000540   40c0                             MOVE      SR,D0
00000542   cc12                             AND.B     (A2),D6
00000544   0200 00fe                        AND.B     #0xfe,D0
00000548   8c00                             OR.B      D0,D6
0000054A   4ed1                             JMP       (A1)
0000054C   1a1e                             MOVE.B    (A6)+,D5
0000054E   4ed1                             JMP       (A1)
00000550   4607                             NOT.B     D7
00000552   4ed1                             JMP       (A1)
00000554   191e                             MOVE.B    (A6)+,-(A4)
00000556   191e                             MOVE.B    (A6)+,-(A4)
00000558   301c                             MOVE.W    (A4)+,D0
0000055A   47f5 0800                        LEA       (D_00,A5,D0.L),A3
0000055E   4ed1                             JMP       (A1)
00000560   191e                             MOVE.B    (A6)+,-(A4)
00000562   191e                             MOVE.B    (A6)+,-(A4)
00000564   301c                             MOVE.W    (A4)+,D0
00000566   1b87 0800                        MOVE.B    D7,(D_00,A5,D0.L)
0000056A   4ed1                             JMP       (A1)
0000056C   528b                             ADDQ      #1,A3
0000056E   4ed1                             JMP       (A1)
00000570   6710                             BEQ       B_582
00000572   5235 5800                        ADDQ.B    #1,(D_00,A5,D5.L)
00000576   40c0                             MOVE      SR,D0
00000578   cc12                             AND.B     (A2),D6
0000057A   0200 00fe                        AND.B     #0xfe,D0
0000057E   8c00                             OR.B      D0,D6
00000580   4ed1                             JMP       (A1)
00000582   101e                             MOVE.B    (A6)+,D0
00000584   4880                             EXT.W     D0
00000586   d045                             ADD.W     D5,D0
00000588   5235 0800                        ADDQ.B    #1,(D_00,A5,D0.L)
0000058C   40c0                             MOVE      SR,D0
0000058E   cc12                             AND.B     (A2),D6
00000590   0200 00fe                        AND.B     #0xfe,D0
00000594   8c00                             OR.B      D0,D6
00000596   4ed1                             JMP       (A1)
00000598   6710                             BEQ       B_5aa
0000059A   5335 5800                        SUBQ.B    #1,(D_00,A5,D5.L)
0000059E   40c0                             MOVE      SR,D0
000005A0   cc12                             AND.B     (A2),D6
000005A2   0200 00fe                        AND.B     #0xfe,D0
000005A6   8c00                             OR.B      D0,D6
000005A8   4ed1                             JMP       (A1)
000005AA   101e                             MOVE.B    (A6)+,D0
000005AC   4880                             EXT.W     D0
000005AE   d045                             ADD.W     D5,D0
000005B0   5335 0800                        SUBQ.B    #1,(D_00,A5,D0.L)
000005B4   40c0                             MOVE      SR,D0

Bird Computer dasm68 dissassembler    version 1.0   Sat Jan 27 18:34:32 2024     Page 10

000005B6   cc12                             AND.B     (A2),D6
000005B8   0200 00fe                        AND.B     #0xfe,D0
000005BC   8c00                             OR.B      D0,D6
000005BE   4ed1                             JMP       (A1)
000005C0   6706                             BEQ       B_5c8
000005C2   1b9e 5800                        MOVE.B    (A6)+,(D_00,A5,D5.L)
000005C6   4ed1                             JMP       (A1)
000005C8   101e                             MOVE.B    (A6)+,D0
000005CA   4880                             EXT.W     D0
000005CC   d045                             ADD.W     D5,D0
000005CE   1b9e 0800                        MOVE.B    (A6)+,(D_00,A5,D0.L)
000005D2   4ed1                             JMP       (A1)
000005D4   08c6 0000                        BSET      #0,D6
000005D8   4ed1                             JMP       (A1)
000005DA   200b                             MOVE      A3,D0
000005DC   908d                             SUB       A5,D0
000005DE   e20e                             LSR.B     #1,D6
000005E0   da40                             ADD.W     D0,D5
000005E2   e316                             ROXL.B    #1,D6
000005E4   4ed1                             JMP       (A1)
000005E6   191e                             MOVE.B    (A6)+,-(A4)
000005E8   191e                             MOVE.B    (A6)+,-(A4)
000005EA   301c                             MOVE.W    (A4)+,D0
000005EC   1e35 0800                        MOVE.B    (D_00,A5,D0.L),D7
000005F0   4ed1                             JMP       (A1)
000005F2   538b                             SUBQ      #1,A3
000005F4   4ed1                             JMP       (A1)
000005F6   1407                             MOVE.B    D7,D2
000005F8   7201                             MOVEQ     #0x1,D1
000005FA   5207                             ADDQ.B    #1,D7
000005FC   40c0                             MOVE      SR,D0
000005FE   cc12                             AND.B     (A2),D6
00000600   0200 00fe                        AND.B     #0xfe,D0
00000604   8c00                             OR.B      D0,D6
00000606   4ed1                             JMP       (A1)
00000608   1407                             MOVE.B    D7,D2
0000060A   72ff                             MOVEQ     #0xff,D1
0000060C   5307                             SUBQ.B    #1,D7
0000060E   40c0                             MOVE      SR,D0
00000610   cc12                             AND.B     (A2),D6
00000612   0200 00fe                        AND.B     #0xfe,D0
00000616   8c00                             OR.B      D0,D6
00000618   4ed1                             JMP       (A1)
0000061A   1e1e                             MOVE.B    (A6)+,D7
0000061C   4ed1                             JMP       (A1)
0000061E   0846 0000                        BCHG      #0,D6
00000622   4ed1                             JMP       (A1)
00000624   4ed1                             JMP       (A1)
00000626   1904                             MOVE.B    D4,-(A4)
00000628   1904                             MOVE.B    D4,-(A4)
0000062A   381c                             MOVE.W    (A4)+,D4
0000062C   4ed1                             JMP       (A1)
0000062E   1004                             MOVE.B    D4,D0
00000630   3803                             MOVE.W    D3,D4
00000632   1800                             MOVE.B    D0,D4
00000634   4ed1                             JMP       (A1)
00000636   1904                             MOVE.B    D4,-(A4)
00000638   1903                             MOVE.B    D3,-(A4)

Bird Computer dasm68 dissassembler    version 1.0   Sat Jan 27 18:34:32 2024     Page 11

0000063A   381c                             MOVE.W    (A4)+,D4
0000063C   4ed1                             JMP       (A1)
0000063E   1004                             MOVE.B    D4,D0
00000640   3805                             MOVE.W    D5,D4
00000642   1800                             MOVE.B    D0,D4
00000644   4ed1                             JMP       (A1)
00000646   1904                             MOVE.B    D4,-(A4)
00000648   1905                             MOVE.B    D5,-(A4)
0000064A   381c                             MOVE.W    (A4)+,D4
0000064C   4ed1                             JMP       (A1)
0000064E   670a                             BEQ       B_65a
00000650   1904                             MOVE.B    D4,-(A4)
00000652   1935 5800                        MOVE.B    (D_00,A5,D5.L),-(A4)
00000656   381c                             MOVE.W    (A4)+,D4
00000658   4ed1                             JMP       (A1)
0000065A   101e                             MOVE.B    (A6)+,D0
0000065C   4880                             EXT.W     D0
0000065E   d045                             ADD.W     D5,D0
00000660   1904                             MOVE.B    D4,-(A4)
00000662   1935 0800                        MOVE.B    (D_00,A5,D0.L),-(A4)
00000666   381c                             MOVE.W    (A4)+,D4
00000668   4ed1                             JMP       (A1)
0000066A   1904                             MOVE.B    D4,-(A4)
0000066C   1907                             MOVE.B    D7,-(A4)
0000066E   381c                             MOVE.W    (A4)+,D4
00000670   4ed1                             JMP       (A1)
00000672   3884                             MOVE.W    D4,(A4)
00000674   1814                             MOVE.B    (A4),D4
00000676   4ed1                             JMP       (A1)
00000678   4ed1                             JMP       (A1)
0000067A   3883                             MOVE.W    D3,(A4)
0000067C   1814                             MOVE.B    (A4),D4
0000067E   4ed1                             JMP       (A1)
00000680   1803                             MOVE.B    D3,D4
00000682   4ed1                             JMP       (A1)
00000684   3885                             MOVE.W    D5,(A4)
00000686   1814                             MOVE.B    (A4),D4
00000688   4ed1                             JMP       (A1)
0000068A   1805                             MOVE.B    D5,D4
0000068C   4ed1                             JMP       (A1)
0000068E   6706                             BEQ       B_696
00000690   1835 5800                        MOVE.B    (D_00,A5,D5.L),D4
00000694   4ed1                             JMP       (A1)
00000696   101e                             MOVE.B    (A6)+,D0
00000698   4880                             EXT.W     D0
0000069A   d045                             ADD.W     D5,D0
0000069C   1835 0800                        MOVE.B    (D_00,A5,D0.L),D4
000006A0   4ed1                             JMP       (A1)
000006A2   1807                             MOVE.B    D7,D4
000006A4   4ed1                             JMP       (A1)
000006A6   1003                             MOVE.B    D3,D0
000006A8   3604                             MOVE.W    D4,D3
000006AA   1600                             MOVE.B    D0,D3
000006AC   4ed1                             JMP       (A1)
000006AE   1903                             MOVE.B    D3,-(A4)
000006B0   1904                             MOVE.B    D4,-(A4)
000006B2   361c                             MOVE.W    (A4)+,D3
000006B4   4ed1                             JMP       (A1)

Bird Computer dasm68 dissassembler    version 1.0   Sat Jan 27 18:34:32 2024     Page 12

000006B6   4ed1                             JMP       (A1)
000006B8   1903                             MOVE.B    D3,-(A4)
000006BA   1903                             MOVE.B    D3,-(A4)
000006BC   361c                             MOVE.W    (A4)+,D3
000006BE   4ed1                             JMP       (A1)
000006C0   1003                             MOVE.B    D3,D0
000006C2   3605                             MOVE.W    D5,D3
000006C4   1600                             MOVE.B    D0,D3
000006C6   4ed1                             JMP       (A1)
000006C8   1903                             MOVE.B    D3,-(A4)
000006CA   1905                             MOVE.B    D5,-(A4)
000006CC   361c                             MOVE.W    (A4)+,D3
000006CE   4ed1                             JMP       (A1)
000006D0   670a                             BEQ       B_6dc
000006D2   1903                             MOVE.B    D3,-(A4)
000006D4   1935 5800                        MOVE.B    (D_00,A5,D5.L),-(A4)
000006D8   361c                             MOVE.W    (A4)+,D3
000006DA   4ed1                             JMP       (A1)
000006DC   101e                             MOVE.B    (A6)+,D0
000006DE   4880                             EXT.W     D0
000006E0   d045                             ADD.W     D5,D0
000006E2   1903                             MOVE.B    D3,-(A4)
000006E4   1935 0800                        MOVE.B    (D_00,A5,D0.L),-(A4)
000006E8   361c                             MOVE.W    (A4)+,D3
000006EA   4ed1                             JMP       (A1)
000006EC   1903                             MOVE.B    D3,-(A4)
000006EE   1907                             MOVE.B    D7,-(A4)
000006F0   361c                             MOVE.W    (A4)+,D3
000006F2   4ed1                             JMP       (A1)
000006F4   3884                             MOVE.W    D4,(A4)
000006F6   1614                             MOVE.B    (A4),D3
000006F8   4ed1                             JMP       (A1)
000006FA   1604                             MOVE.B    D4,D3
000006FC   4ed1                             JMP       (A1)
000006FE   3883                             MOVE.W    D3,(A4)
00000700   1614                             MOVE.B    (A4),D3
00000702   4ed1                             JMP       (A1)
00000704   4ed1                             JMP       (A1)
00000706   3885                             MOVE.W    D5,(A4)
00000708   1614                             MOVE.B    (A4),D3
0000070A   4ed1                             JMP       (A1)
0000070C   1605                             MOVE.B    D5,D3
0000070E   4ed1                             JMP       (A1)
00000710   6706                             BEQ       B_718
00000712   1635 5800                        MOVE.B    (D_00,A5,D5.L),D3
00000716   4ed1                             JMP       (A1)
00000718   101e                             MOVE.B    (A6)+,D0
0000071A   4880                             EXT.W     D0
0000071C   d045                             ADD.W     D5,D0
0000071E   1635 0800                        MOVE.B    (D_00,A5,D0.L),D3
00000722   4ed1                             JMP       (A1)
00000724   1607                             MOVE.B    D7,D3
00000726   4ed1                             JMP       (A1)
00000728   1005                             MOVE.B    D5,D0
0000072A   3a04                             MOVE.W    D4,D5
0000072C   1a00                             MOVE.B    D0,D5
0000072E   4ed1                             JMP       (A1)
00000730   1905                             MOVE.B    D5,-(A4)

Bird Computer dasm68 dissassembler    version 1.0   Sat Jan 27 18:34:32 2024     Page 13

00000732   1904                             MOVE.B    D4,-(A4)
00000734   3a1c                             MOVE.W    (A4)+,D5
00000736   4ed1                             JMP       (A1)
00000738   1005                             MOVE.B    D5,D0
0000073A   3a03                             MOVE.W    D3,D5
0000073C   1a00                             MOVE.B    D0,D5
0000073E   4ed1                             JMP       (A1)
00000740   1905                             MOVE.B    D5,-(A4)
00000742   1903                             MOVE.B    D3,-(A4)
00000744   3a1c                             MOVE.W    (A4)+,D5
00000746   4ed1                             JMP       (A1)
00000748   4ed1                             JMP       (A1)
0000074A   1905                             MOVE.B    D5,-(A4)
0000074C   1905                             MOVE.B    D5,-(A4)
0000074E   3a1c                             MOVE.W    (A4)+,D5
00000750   4ed1                             JMP       (A1)
00000752   670a                             BEQ       B_75e
00000754   1905                             MOVE.B    D5,-(A4)
00000756   1935 5800                        MOVE.B    (D_00,A5,D5.L),-(A4)
0000075A   3a1c                             MOVE.W    (A4)+,D5
0000075C   4ed1                             JMP       (A1)
0000075E   101e                             MOVE.B    (A6)+,D0
00000760   4880                             EXT.W     D0
00000762   d045                             ADD.W     D5,D0
00000764   1eb5 0800                        MOVE.B    (D_00,A5,D0.L),(A7)
00000768   4ed1                             JMP       (A1)
0000076A   1905                             MOVE.B    D5,-(A4)
0000076C   1907                             MOVE.B    D7,-(A4)
0000076E   3a1c                             MOVE.W    (A4)+,D5
00000770   4ed1                             JMP       (A1)
00000772   3884                             MOVE.W    D4,(A4)
00000774   1a14                             MOVE.B    (A4),D5
00000776   4ed1                             JMP       (A1)
00000778   1a04                             MOVE.B    D4,D5
0000077A   4ed1                             JMP       (A1)
0000077C   3883                             MOVE.W    D3,(A4)
0000077E   1a14                             MOVE.B    (A4),D5
00000780   4ed1                             JMP       (A1)
00000782   1a03                             MOVE.B    D3,D5
00000784   4ed1                             JMP       (A1)
00000786   3885                             MOVE.W    D5,(A4)
00000788   1a14                             MOVE.B    (A4),D5
0000078A   4ed1                             JMP       (A1)
0000078C   4ed1                             JMP       (A1)
0000078E   6706                             BEQ       B_796
00000790   1a35 5800                        MOVE.B    (D_00,A5,D5.L),D5
00000794   4ed1                             JMP       (A1)
00000796   101e                             MOVE.B    (A6)+,D0
00000798   4880                             EXT.W     D0
0000079A   d045                             ADD.W     D5,D0
0000079C   1f75 0800 0001                   MOVE.B    (D_00,A5,D0.L),(D_0001,A7)
000007A2   4ed1                             JMP       (A1)
000007A4   1a07                             MOVE.B    D7,D5
000007A6   4ed1                             JMP       (A1)
000007A8   6708                             BEQ       B_7b2
000007AA   3884                             MOVE.W    D4,(A4)
000007AC   1b94 5800                        MOVE.B    (A4),(D_00,A5,D5.L)
000007B0   4ed1                             JMP       (A1)

Bird Computer dasm68 dissassembler    version 1.0   Sat Jan 27 18:34:32 2024     Page 14

000007B2   3884                             MOVE.W    D4,(A4)
000007B4   101e                             MOVE.B    (A6)+,D0
000007B6   4880                             EXT.W     D0
000007B8   d045                             ADD.W     D5,D0
000007BA   1b94 0800                        MOVE.B    (A4),(D_00,A5,D0.L)
000007BE   4ed1                             JMP       (A1)
000007C0   6706                             BEQ       B_7c8
000007C2   1b84 5800                        MOVE.B    D4,(D_00,A5,D5.L)
000007C6   4ed1                             JMP       (A1)
000007C8   101e                             MOVE.B    (A6)+,D0
000007CA   4880                             EXT.W     D0
000007CC   d045                             ADD.W     D5,D0
000007CE   1b84 0800                        MOVE.B    D4,(D_00,A5,D0.L)
000007D2   4ed1                             JMP       (A1)
000007D4   6708                             BEQ       B_7de
000007D6   3883                             MOVE.W    D3,(A4)
000007D8   1b94 5800                        MOVE.B    (A4),(D_00,A5,D5.L)
000007DC   4ed1                             JMP       (A1)
000007DE   3883                             MOVE.W    D3,(A4)
000007E0   101e                             MOVE.B    (A6)+,D0
000007E2   4880                             EXT.W     D0
000007E4   d045                             ADD.W     D5,D0
000007E6   1b94 0800                        MOVE.B    (A4),(D_00,A5,D0.L)
000007EA   4ed1                             JMP       (A1)
000007EC   6706                             BEQ       B_7f4
000007EE   1b83 5800                        MOVE.B    D3,(D_00,A5,D5.L)
000007F2   4ed1                             JMP       (A1)
000007F4   101e                             MOVE.B    (A6)+,D0
000007F6   4880                             EXT.W     D0
000007F8   d045                             ADD.W     D5,D0
000007FA   1b83 0800                        MOVE.B    D3,(D_00,A5,D0.L)
000007FE   4ed1                             JMP       (A1)
00000800   6708                             BEQ       B_80a
00000802   3885                             MOVE.W    D5,(A4)
00000804   1b94 5800                        MOVE.B    (A4),(D_00,A5,D5.L)
00000808   4ed1                             JMP       (A1)
0000080A   101e                             MOVE.B    (A6)+,D0
0000080C   4880                             EXT.W     D0
0000080E   d045                             ADD.W     D5,D0
00000810   1b97 0800                        MOVE.B    (A7),(D_00,A5,D0.L)
00000814   4ed1                             JMP       (A1)
00000816   6706                             BEQ       B_81e
00000818   1b85 5800                        MOVE.B    D5,(D_00,A5,D5.L)
0000081C   4ed1                             JMP       (A1)
0000081E   101e                             MOVE.B    (A6)+,D0
00000820   4880                             EXT.W     D0
00000822   d045                             ADD.W     D5,D0
00000824   1baf 0001 0800                   MOVE.B    (D_0001,A7),(D_00,A5,D0.L)
0000082A   4ed1                             JMP       (A1)
0000082C   6000 106e                        BRA.L     B_189c
00000830   6706                             BEQ       B_838
00000832   1b87 5800                        MOVE.B    D7,(D_00,A5,D5.L)
00000836   4ed1                             JMP       (A1)
00000838   101e                             MOVE.B    (A6)+,D0
0000083A   4880                             EXT.W     D0
0000083C   d045                             ADD.W     D5,D0
0000083E   1b87 0800                        MOVE.B    D7,(D_00,A5,D0.L)
00000842   4ed1                             JMP       (A1)

Bird Computer dasm68 dissassembler    version 1.0   Sat Jan 27 18:34:32 2024     Page 15

00000844   3884                             MOVE.W    D4,(A4)
00000846   1e14                             MOVE.B    (A4),D7
00000848   4ed1                             JMP       (A1)
0000084A   1e04                             MOVE.B    D4,D7
0000084C   4ed1                             JMP       (A1)
0000084E   3883                             MOVE.W    D3,(A4)
00000850   1e14                             MOVE.B    (A4),D7
00000852   4ed1                             JMP       (A1)
00000854   1e03                             MOVE.B    D3,D7
00000856   4ed1                             JMP       (A1)
00000858   3885                             MOVE.W    D5,(A4)
0000085A   1e14                             MOVE.B    (A4),D7
0000085C   4ed1                             JMP       (A1)
0000085E   1e05                             MOVE.B    D5,D7
00000860   4ed1                             JMP       (A1)
00000862   6706                             BEQ       B_86a
00000864   1e35 5800                        MOVE.B    (D_00,A5,D5.L),D7
00000868   4ed1                             JMP       (A1)
0000086A   101e                             MOVE.B    (A6)+,D0
0000086C   4880                             EXT.W     D0
0000086E   d045                             ADD.W     D5,D0
00000870   1e35 0800                        MOVE.B    (D_00,A5,D0.L),D7
00000874   4ed1                             JMP       (A1)
00000876   4ed1                             JMP       (A1)
00000878   1207                             MOVE.B    D7,D1
0000087A   3884                             MOVE.W    D4,(A4)
0000087C   1414                             MOVE.B    (A4),D2
0000087E   de02                             ADD.B     D2,D7
00000880   40c6                             MOVE      SR,D6
00000882   4ed1                             JMP       (A1)
00000884   1207                             MOVE.B    D7,D1
00000886   1404                             MOVE.B    D4,D2
00000888   de02                             ADD.B     D2,D7
0000088A   40c6                             MOVE      SR,D6
0000088C   4ed1                             JMP       (A1)
0000088E   1207                             MOVE.B    D7,D1
00000890   3883                             MOVE.W    D3,(A4)
00000892   1414                             MOVE.B    (A4),D2
00000894   de02                             ADD.B     D2,D7
00000896   40c6                             MOVE      SR,D6
00000898   4ed1                             JMP       (A1)
0000089A   1207                             MOVE.B    D7,D1
0000089C   1403                             MOVE.B    D3,D2
0000089E   de02                             ADD.B     D2,D7
000008A0   40c6                             MOVE      SR,D6
000008A2   4ed1                             JMP       (A1)
000008A4   1207                             MOVE.B    D7,D1
000008A6   3885                             MOVE.W    D5,(A4)
000008A8   1414                             MOVE.B    (A4),D2
000008AA   de02                             ADD.B     D2,D7
000008AC   40c6                             MOVE      SR,D6
000008AE   4ed1                             JMP       (A1)
000008B0   1207                             MOVE.B    D7,D1
000008B2   1405                             MOVE.B    D5,D2
000008B4   de02                             ADD.B     D2,D7
000008B6   40c6                             MOVE      SR,D6
000008B8   4ed1                             JMP       (A1)
000008BA   670c                             BEQ       B_8c8

Bird Computer dasm68 dissassembler    version 1.0   Sat Jan 27 18:34:32 2024     Page 16

000008BC   1207                             MOVE.B    D7,D1
000008BE   1435 5800                        MOVE.B    (D_00,A5,D5.L),D2
000008C2   de02                             ADD.B     D2,D7
000008C4   40c6                             MOVE      SR,D6
000008C6   4ed1                             JMP       (A1)
000008C8   101e                             MOVE.B    (A6)+,D0
000008CA   4880                             EXT.W     D0
000008CC   d045                             ADD.W     D5,D0
000008CE   1207                             MOVE.B    D7,D1
000008D0   1435 0800                        MOVE.B    (D_00,A5,D0.L),D2
000008D4   de02                             ADD.B     D2,D7
000008D6   40c6                             MOVE      SR,D6
000008D8   4ed1                             JMP       (A1)
000008DA   1207                             MOVE.B    D7,D1
000008DC   1407                             MOVE.B    D7,D2
000008DE   de07                             ADD.B     D7,D7
000008E0   40c6                             MOVE      SR,D6
000008E2   4ed1                             JMP       (A1)
000008E4   3884                             MOVE.W    D4,(A4)
000008E6   1414                             MOVE.B    (A4),D2
000008E8   1207                             MOVE.B    D7,D1
000008EA   cc12                             AND.B     (A2),D6
000008EC   e20e                             LSR.B     #1,D6
000008EE   df02                             ADDX.B    D2,D7
000008F0   40c6                             MOVE      SR,D6
000008F2   4ed1                             JMP       (A1)
000008F4   1404                             MOVE.B    D4,D2
000008F6   1207                             MOVE.B    D7,D1
000008F8   cc12                             AND.B     (A2),D6
000008FA   e20e                             LSR.B     #1,D6
000008FC   df02                             ADDX.B    D2,D7
000008FE   40c6                             MOVE      SR,D6
00000900   4ed1                             JMP       (A1)
00000902   3883                             MOVE.W    D3,(A4)
00000904   1414                             MOVE.B    (A4),D2
00000906   1207                             MOVE.B    D7,D1
00000908   cc12                             AND.B     (A2),D6
0000090A   e20e                             LSR.B     #1,D6
0000090C   df02                             ADDX.B    D2,D7
0000090E   40c6                             MOVE      SR,D6
00000910   4ed1                             JMP       (A1)
00000912   1403                             MOVE.B    D3,D2
00000914   1207                             MOVE.B    D7,D1
00000916   cc12                             AND.B     (A2),D6
00000918   e20e                             LSR.B     #1,D6
0000091A   df02                             ADDX.B    D2,D7
0000091C   40c6                             MOVE      SR,D6
0000091E   4ed1                             JMP       (A1)
00000920   3885                             MOVE.W    D5,(A4)
00000922   1414                             MOVE.B    (A4),D2
00000924   1207                             MOVE.B    D7,D1
00000926   cc12                             AND.B     (A2),D6
00000928   e20e                             LSR.B     #1,D6
0000092A   df02                             ADDX.B    D2,D7
0000092C   40c6                             MOVE      SR,D6
0000092E   4ed1                             JMP       (A1)
00000930   1405                             MOVE.B    D5,D2
00000932   1207                             MOVE.B    D7,D1

Bird Computer dasm68 dissassembler    version 1.0   Sat Jan 27 18:34:32 2024     Page 17

00000934   cc12                             AND.B     (A2),D6
00000936   e20e                             LSR.B     #1,D6
00000938   df02                             ADDX.B    D2,D7
0000093A   40c6                             MOVE      SR,D6
0000093C   4ed1                             JMP       (A1)
0000093E   6710                             BEQ       B_950
00000940   1207                             MOVE.B    D7,D1
00000942   1435 5800                        MOVE.B    (D_00,A5,D5.L),D2
00000946   cc12                             AND.B     (A2),D6
00000948   e20e                             LSR.B     #1,D6
0000094A   df02                             ADDX.B    D2,D7
0000094C   40c6                             MOVE      SR,D6
0000094E   4ed1                             JMP       (A1)
00000950   101e                             MOVE.B    (A6)+,D0
00000952   4880                             EXT.W     D0
00000954   d045                             ADD.W     D5,D0
00000956   1207                             MOVE.B    D7,D1
00000958   1435 0800                        MOVE.B    (D_00,A5,D0.L),D2
0000095C   cc12                             AND.B     (A2),D6
0000095E   e20e                             LSR.B     #1,D6
00000960   df02                             ADDX.B    D2,D7
00000962   40c6                             MOVE      SR,D6
00000964   4ed1                             JMP       (A1)
00000966   1207                             MOVE.B    D7,D1
00000968   1401                             MOVE.B    D1,D2
0000096A   cc12                             AND.B     (A2),D6
0000096C   e20e                             LSR.B     #1,D6
0000096E   df07                             ADDX.B    D7,D7
00000970   40c6                             MOVE      SR,D6
00000972   4ed1                             JMP       (A1)
00000974   3884                             MOVE.W    D4,(A4)
00000976   1407                             MOVE.B    D7,D2
00000978   1214                             MOVE.B    (A4),D1
0000097A   9e01                             SUB.B     D1,D7
0000097C   40c6                             MOVE      SR,D6
0000097E   4ed1                             JMP       (A1)
00000980   1407                             MOVE.B    D7,D2
00000982   1204                             MOVE.B    D4,D1
00000984   9e01                             SUB.B     D1,D7
00000986   40c6                             MOVE      SR,D6
00000988   4ed1                             JMP       (A1)
0000098A   3883                             MOVE.W    D3,(A4)
0000098C   1407                             MOVE.B    D7,D2
0000098E   1214                             MOVE.B    (A4),D1
00000990   9e01                             SUB.B     D1,D7
00000992   40c6                             MOVE      SR,D6
00000994   4ed1                             JMP       (A1)
00000996   1407                             MOVE.B    D7,D2
00000998   1203                             MOVE.B    D3,D1
0000099A   9e01                             SUB.B     D1,D7
0000099C   40c6                             MOVE      SR,D6
0000099E   4ed1                             JMP       (A1)
000009A0   3885                             MOVE.W    D5,(A4)
000009A2   1407                             MOVE.B    D7,D2
000009A4   1214                             MOVE.B    (A4),D1
000009A6   9e14                             SUB.B     (A4),D7
000009A8   40c6                             MOVE      SR,D6
000009AA   4ed1                             JMP       (A1)

Bird Computer dasm68 dissassembler    version 1.0   Sat Jan 27 18:34:32 2024     Page 18

000009AC   1407                             MOVE.B    D7,D2
000009AE   1205                             MOVE.B    D5,D1
000009B0   9e01                             SUB.B     D1,D7
000009B2   40c6                             MOVE      SR,D6
000009B4   4ed1                             JMP       (A1)
000009B6   670c                             BEQ       B_9c4
000009B8   1407                             MOVE.B    D7,D2
000009BA   1235 5800                        MOVE.B    (D_00,A5,D5.L),D1
000009BE   9e01                             SUB.B     D1,D7
000009C0   40c6                             MOVE      SR,D6
000009C2   4ed1                             JMP       (A1)
000009C4   101e                             MOVE.B    (A6)+,D0
000009C6   4880                             EXT.W     D0
000009C8   d045                             ADD.W     D5,D0
000009CA   1407                             MOVE.B    D7,D2
000009CC   1235 0800                        MOVE.B    (D_00,A5,D0.L),D1
000009D0   9e01                             SUB.B     D1,D7
000009D2   40c6                             MOVE      SR,D6
000009D4   4ed1                             JMP       (A1)
000009D6   1407                             MOVE.B    D7,D2
000009D8   1207                             MOVE.B    D7,D1
000009DA   9e07                             SUB.B     D7,D7
000009DC   40c6                             MOVE      SR,D6
000009DE   4ed1                             JMP       (A1)
000009E0   3884                             MOVE.W    D4,(A4)
000009E2   1407                             MOVE.B    D7,D2
000009E4   1214                             MOVE.B    (A4),D1
000009E6   cc12                             AND.B     (A2),D6
000009E8   e20e                             LSR.B     #1,D6
000009EA   9f01                             SUBX.B    D1,D7
000009EC   40c6                             MOVE      SR,D6
000009EE   4ed1                             JMP       (A1)
000009F0   1407                             MOVE.B    D7,D2
000009F2   1204                             MOVE.B    D4,D1
000009F4   cc12                             AND.B     (A2),D6
000009F6   e20e                             LSR.B     #1,D6
000009F8   9f01                             SUBX.B    D1,D7
000009FA   40c6                             MOVE      SR,D6
000009FC   4ed1                             JMP       (A1)
000009FE   3883                             MOVE.W    D3,(A4)
00000A00   1407                             MOVE.B    D7,D2
00000A02   1214                             MOVE.B    (A4),D1
00000A04   cc12                             AND.B     (A2),D6
00000A06   e20e                             LSR.B     #1,D6
00000A08   9f01                             SUBX.B    D1,D7
00000A0A   40c6                             MOVE      SR,D6
00000A0C   4ed1                             JMP       (A1)
00000A0E   1407                             MOVE.B    D7,D2
00000A10   1203                             MOVE.B    D3,D1
00000A12   cc12                             AND.B     (A2),D6
00000A14   e20e                             LSR.B     #1,D6
00000A16   9f01                             SUBX.B    D1,D7
00000A18   40c6                             MOVE      SR,D6
00000A1A   4ed1                             JMP       (A1)
00000A1C   3885                             MOVE.W    D5,(A4)
00000A1E   1407                             MOVE.B    D7,D2
00000A20   1214                             MOVE.B    (A4),D1
00000A22   cc12                             AND.B     (A2),D6

Bird Computer dasm68 dissassembler    version 1.0   Sat Jan 27 18:34:32 2024     Page 19

00000A24   e20e                             LSR.B     #1,D6
00000A26   9f01                             SUBX.B    D1,D7
00000A28   40c6                             MOVE      SR,D6
00000A2A   4ed1                             JMP       (A1)
00000A2C   1407                             MOVE.B    D7,D2
00000A2E   1205                             MOVE.B    D5,D1
00000A30   cc12                             AND.B     (A2),D6
00000A32   e20e                             LSR.B     #1,D6
00000A34   9f01                             SUBX.B    D1,D7
00000A36   40c6                             MOVE      SR,D6
00000A38   4ed1                             JMP       (A1)
00000A3A   6710                             BEQ       B_a4c
00000A3C   1235 5800                        MOVE.B    (D_00,A5,D5.L),D1
00000A40   1407                             MOVE.B    D7,D2
00000A42   cc12                             AND.B     (A2),D6
00000A44   e20e                             LSR.B     #1,D6
00000A46   9f01                             SUBX.B    D1,D7
00000A48   40c6                             MOVE      SR,D6
00000A4A   4ed1                             JMP       (A1)
00000A4C   101e                             MOVE.B    (A6)+,D0
00000A4E   4880                             EXT.W     D0
00000A50   d045                             ADD.W     D5,D0
00000A52   1235 0800                        MOVE.B    (D_00,A5,D0.L),D1
00000A56   1407                             MOVE.B    D7,D2
00000A58   cc12                             AND.B     (A2),D6
00000A5A   e20e                             LSR.B     #1,D6
00000A5C   9f01                             SUBX.B    D1,D7
00000A5E   40c6                             MOVE      SR,D6
00000A60   4ed1                             JMP       (A1)
00000A62   1407                             MOVE.B    D7,D2
00000A64   1207                             MOVE.B    D7,D1
00000A66   cc12                             AND.B     (A2),D6
00000A68   e20e                             LSR.B     #1,D6
00000A6A   9f07                             SUBX.B    D7,D7
00000A6C   40c6                             MOVE      SR,D6
00000A6E   4ed1                             JMP       (A1)
00000A70   3884                             MOVE.W    D4,(A4)
00000A72   ce14                             AND.B     (A4),D7
00000A74   1c32 7002                        MOVE.B    (D_02,A2,D7.W),D6
00000A78   4ed1                             JMP       (A1)
00000A7A   ce04                             AND.B     D4,D7
00000A7C   1c32 7002                        MOVE.B    (D_02,A2,D7.W),D6
00000A80   4ed1                             JMP       (A1)
00000A82   3883                             MOVE.W    D3,(A4)
00000A84   ce14                             AND.B     (A4),D7
00000A86   1c32 7002                        MOVE.B    (D_02,A2,D7.W),D6
00000A8A   4ed1                             JMP       (A1)
00000A8C   ce03                             AND.B     D3,D7
00000A8E   1c32 7002                        MOVE.B    (D_02,A2,D7.W),D6
00000A92   4ed1                             JMP       (A1)
00000A94   3885                             MOVE.W    D5,(A4)
00000A96   ce14                             AND.B     (A4),D7
00000A98   1c32 7002                        MOVE.B    (D_02,A2,D7.W),D6
00000A9C   4ed1                             JMP       (A1)
00000A9E   ce05                             AND.B     D5,D7
00000AA0   1c32 7002                        MOVE.B    (D_02,A2,D7.W),D6
00000AA4   4ed1                             JMP       (A1)
00000AA6   670a                             BEQ       B_ab2

Bird Computer dasm68 dissassembler    version 1.0   Sat Jan 27 18:34:32 2024     Page 20

00000AA8   ce35 5800                        AND.B     (D_00,A5,D5.L),D7
00000AAC   1c32 7002                        MOVE.B    (D_02,A2,D7.W),D6
00000AB0   4ed1                             JMP       (A1)
00000AB2   101e                             MOVE.B    (A6)+,D0
00000AB4   4880                             EXT.W     D0
00000AB6   d045                             ADD.W     D5,D0
00000AB8   ce35 0800                        AND.B     (D_00,A5,D0.L),D7
00000ABC   1c32 7002                        MOVE.B    (D_02,A2,D7.W),D6
00000AC0   4ed1                             JMP       (A1)
00000AC2   ce07                             AND.B     D7,D7
00000AC4   1c32 7002                        MOVE.B    (D_02,A2,D7.W),D6
00000AC8   4ed1                             JMP       (A1)
00000ACA   3884                             MOVE.W    D4,(A4)
00000ACC   1014                             MOVE.B    (A4),D0
00000ACE   b107                             EOR.B     D0,D7
00000AD0   1c32 7002                        MOVE.B    (D_02,A2,D7.W),D6
00000AD4   4ed1                             JMP       (A1)
00000AD6   b907                             EOR.B     D4,D7
00000AD8   1c32 7002                        MOVE.B    (D_02,A2,D7.W),D6
00000ADC   4ed1                             JMP       (A1)
00000ADE   3883                             MOVE.W    D3,(A4)
00000AE0   1014                             MOVE.B    (A4),D0
00000AE2   b107                             EOR.B     D0,D7
00000AE4   1c32 7002                        MOVE.B    (D_02,A2,D7.W),D6
00000AE8   4ed1                             JMP       (A1)
00000AEA   b707                             EOR.B     D3,D7
00000AEC   1c32 7002                        MOVE.B    (D_02,A2,D7.W),D6
00000AF0   4ed1                             JMP       (A1)
00000AF2   3885                             MOVE.W    D5,(A4)
00000AF4   1014                             MOVE.B    (A4),D0
00000AF6   b107                             EOR.B     D0,D7
00000AF8   1c32 7002                        MOVE.B    (D_02,A2,D7.W),D6
00000AFC   4ed1                             JMP       (A1)
00000AFE   bb07                             EOR.B     D5,D7
00000B00   1c32 7002                        MOVE.B    (D_02,A2,D7.W),D6
00000B04   4ed1                             JMP       (A1)
00000B06   670c                             BEQ       B_b14
00000B08   1035 5800                        MOVE.B    (D_00,A5,D5.L),D0
00000B0C   b107                             EOR.B     D0,D7
00000B0E   1c32 7002                        MOVE.B    (D_02,A2,D7.W),D6
00000B12   4ed1                             JMP       (A1)
00000B14   101e                             MOVE.B    (A6)+,D0
00000B16   4880                             EXT.W     D0
00000B18   d045                             ADD.W     D5,D0
00000B1A   1035 0800                        MOVE.B    (D_00,A5,D0.L),D0
00000B1E   b107                             EOR.B     D0,D7
00000B20   1c32 7002                        MOVE.B    (D_02,A2,D7.W),D6
00000B24   4ed1                             JMP       (A1)
00000B26   bf07                             EOR.B     D7,D7
00000B28   1c32 7002                        MOVE.B    (D_02,A2,D7.W),D6
00000B2C   4ed1                             JMP       (A1)
00000B2E   3884                             MOVE.W    D4,(A4)
00000B30   8e14                             OR.B      (A4),D7
00000B32   1c32 7002                        MOVE.B    (D_02,A2,D7.W),D6
00000B36   4ed1                             JMP       (A1)
00000B38   8e04                             OR.B      D4,D7
00000B3A   1c32 7002                        MOVE.B    (D_02,A2,D7.W),D6
00000B3E   4ed1                             JMP       (A1)

Bird Computer dasm68 dissassembler    version 1.0   Sat Jan 27 18:34:32 2024     Page 21

00000B40   3883                             MOVE.W    D3,(A4)
00000B42   8e14                             OR.B      (A4),D7
00000B44   1c32 7002                        MOVE.B    (D_02,A2,D7.W),D6
00000B48   4ed1                             JMP       (A1)
00000B4A   8e03                             OR.B      D3,D7
00000B4C   1c32 7002                        MOVE.B    (D_02,A2,D7.W),D6
00000B50   4ed1                             JMP       (A1)
00000B52   3885                             MOVE.W    D5,(A4)
00000B54   8e14                             OR.B      (A4),D7
00000B56   1c32 7002                        MOVE.B    (D_02,A2,D7.W),D6
00000B5A   4ed1                             JMP       (A1)
00000B5C   8e05                             OR.B      D5,D7
00000B5E   1c32 7002                        MOVE.B    (D_02,A2,D7.W),D6
00000B62   4ed1                             JMP       (A1)
00000B64   670a                             BEQ       B_b70
00000B66   8e35 5800                        OR.B      (D_00,A5,D5.L),D7
00000B6A   1c32 7002                        MOVE.B    (D_02,A2,D7.W),D6
00000B6E   4ed1                             JMP       (A1)
00000B70   101e                             MOVE.B    (A6)+,D0
00000B72   4880                             EXT.W     D0
00000B74   d045                             ADD.W     D5,D0
00000B76   8e35 0800                        OR.B      (D_00,A5,D0.L),D7
00000B7A   1c32 7002                        MOVE.B    (D_02,A2,D7.W),D6
00000B7E   4ed1                             JMP       (A1)
00000B80   8e07                             OR.B      D7,D7
00000B82   1c32 7002                        MOVE.B    (D_02,A2,D7.W),D6
00000B86   4ed1                             JMP       (A1)
00000B88   3884                             MOVE.W    D4,(A4)
00000B8A   be14                             CMP.B     (A4),D7
00000B8C   40c6                             MOVE      SR,D6
00000B8E   4ed1                             JMP       (A1)
00000B90   be04                             CMP.B     D4,D7
00000B92   40c6                             MOVE      SR,D6
00000B94   4ed1                             JMP       (A1)
00000B96   3883                             MOVE.W    D3,(A4)
00000B98   be14                             CMP.B     (A4),D7
00000B9A   40c6                             MOVE      SR,D6
00000B9C   4ed1                             JMP       (A1)
00000B9E   be03                             CMP.B     D3,D7
00000BA0   40c6                             MOVE      SR,D6
00000BA2   4ed1                             JMP       (A1)
00000BA4   3885                             MOVE.W    D5,(A4)
00000BA6   be14                             CMP.B     (A4),D7
00000BA8   40c6                             MOVE      SR,D6
00000BAA   4ed1                             JMP       (A1)
00000BAC   be05                             CMP.B     D5,D7
00000BAE   40c6                             MOVE      SR,D6
00000BB0   4ed1                             JMP       (A1)
00000BB2   6708                             BEQ       B_bbc
00000BB4   be35 5800                        CMP.B     (D_00,A5,D5.L),D7
00000BB8   40c6                             MOVE      SR,D6
00000BBA   4ed1                             JMP       (A1)
00000BBC   101e                             MOVE.B    (A6)+,D0
00000BBE   4880                             EXT.W     D0
00000BC0   d045                             ADD.W     D5,D0
00000BC2   be35 0800                        CMP.B     (D_00,A5,D0.L),D7
00000BC6   40c6                             MOVE      SR,D6
00000BC8   4ed1                             JMP       (A1)

Bird Computer dasm68 dissassembler    version 1.0   Sat Jan 27 18:34:32 2024     Page 22

00000BCA   be07                             CMP.B     D7,D7
00000BCC   40c6                             MOVE      SR,D6
00000BCE   4ed1                             JMP       (A1)
00000BD0   191b                             MOVE.B    (A3)+,-(A4)
00000BD2   191b                             MOVE.B    (A3)+,-(A4)
00000BD4   381c                             MOVE.W    (A4)+,D4
00000BD6   4ed1                             JMP       (A1)
00000BD8   191b                             MOVE.B    (A3)+,-(A4)
00000BDA   191b                             MOVE.B    (A3)+,-(A4)
00000BDC   361c                             MOVE.W    (A4)+,D3
00000BDE   4ed1                             JMP       (A1)
00000BE0   191b                             MOVE.B    (A3)+,-(A4)
00000BE2   191b                             MOVE.B    (A3)+,-(A4)
00000BE4   3a1c                             MOVE.W    (A4)+,D5
00000BE6   4ed1                             JMP       (A1)
00000BE8   101b                             MOVE.B    (A3)+,D0
00000BEA   e208                             LSR.B     #1,D0
00000BEC   e216                             ROXR.B    #1,D6
00000BEE   e408                             LSR.B     #2,D0
00000BF0   e216                             ROXR.B    #1,D6
00000BF2   e808                             LSR.B     #4,D0
00000BF4   e216                             ROXR.B    #1,D6
00000BF6   e208                             LSR.B     #1,D0
00000BF8   ea16                             ROXR.B    #5,D6
00000BFA   1e1b                             MOVE.B    (A3)+,D7
00000BFC   4ed1                             JMP       (A1)
00000BFE   44c6                             MOVE      D6,CCR
00000C00   6638                             BNE       B_c3a
00000C02   548e                             ADDQ      #2,A6
00000C04   4ed1                             JMP       (A1)
00000C06   44c6                             MOVE      D6,CCR
00000C08   6730                             BEQ       B_c3a
00000C0A   548e                             ADDQ      #2,A6
00000C0C   4ed1                             JMP       (A1)
00000C0E   44c6                             MOVE      D6,CCR
00000C10   6428                             BCC       B_c3a
00000C12   548e                             ADDQ      #2,A6
00000C14   4ed1                             JMP       (A1)
00000C16   44c6                             MOVE      D6,CCR
00000C18   6520                             BCS       B_c3a
00000C1A   548e                             ADDQ      #2,A6
00000C1C   4ed1                             JMP       (A1)
00000C1E   44c6                             MOVE      D6,CCR
00000C20   6818                             BVC       B_c3a
00000C22   548e                             ADDQ      #2,A6
00000C24   4ed1                             JMP       (A1)
00000C26   44c6                             MOVE      D6,CCR
00000C28   6910                             BVS       B_c3a
00000C2A   548e                             ADDQ      #2,A6
00000C2C   4ed1                             JMP       (A1)
00000C2E   44c6                             MOVE      D6,CCR
00000C30   6a08                             BPL       B_c3a
00000C32   548e                             ADDQ      #2,A6
00000C34   4ed1                             JMP       (A1)
00000C36   44c6                             MOVE      D6,CCR
00000C38   6af8                             BPL       B_c32
00000C3A   191e                             MOVE.B    (A6)+,-(A4)
00000C3C   1916                             MOVE.B    (A6),-(A4)

Bird Computer dasm68 dissassembler    version 1.0   Sat Jan 27 18:34:32 2024     Page 23

00000C3E   301c                             MOVE.W    (A4)+,D0
00000C40   4df5 0800                        LEA       (D_00,A5,D0.L),A6
00000C44   4ed1                             JMP       (A1)
00000C46   44c6                             MOVE      D6,CCR
00000C48   6718                             BEQ       B_c62
00000C4A   191e                             MOVE.B    (A6)+,-(A4)
00000C4C   191e                             MOVE.B    (A6)+,-(A4)
00000C4E   301c                             MOVE.W    (A4)+,D0
00000C50   9dcd                             SUBA      A5,A6
00000C52   390e                             MOVE.W    A6,-(A4)
00000C54   171c                             MOVE.B    (A4)+,-(A3)
00000C56   171c                             MOVE.B    (A4)+,-(A3)
00000C58   4df5 0800                        LEA       (D_00,A5,D0.L),A6
00000C5C   4ed1                             JMP       (A1)
00000C5E   44c6                             MOVE      D6,CCR
00000C60   67e8                             BEQ       B_c4a
00000C62   548e                             ADDQ      #2,A6
00000C64   4ed1                             JMP       (A1)
00000C66   44c6                             MOVE      D6,CCR
00000C68   64e0                             BCC       B_c4a
00000C6A   548e                             ADDQ      #2,A6
00000C6C   4ed1                             JMP       (A1)
00000C6E   44c6                             MOVE      D6,CCR
00000C70   65d8                             BCS       B_c4a
00000C72   548e                             ADDQ      #2,A6
00000C74   4ed1                             JMP       (A1)
00000C76   44c6                             MOVE      D6,CCR
00000C78   68d0                             BVC       B_c4a
00000C7A   548e                             ADDQ      #2,A6
00000C7C   4ed1                             JMP       (A1)
00000C7E   44c6                             MOVE      D6,CCR
00000C80   69c8                             BVS       B_c4a
00000C82   548e                             ADDQ      #2,A6
00000C84   4ed1                             JMP       (A1)
00000C86   44c6                             MOVE      D6,CCR
00000C88   6ac0                             BPL       B_c4a
00000C8A   548e                             ADDQ      #2,A6
00000C8C   4ed1                             JMP       (A1)
00000C8E   44c6                             MOVE      D6,CCR
00000C90   6bb8                             BMI       B_c4a
00000C92   548e                             ADDQ      #2,A6
00000C94   4ed1                             JMP       (A1)
00000C96   3884                             MOVE.W    D4,(A4)
00000C98   1714                             MOVE.B    (A4),-(A3)
00000C9A   1704                             MOVE.B    D4,-(A3)
00000C9C   4ed1                             JMP       (A1)
00000C9E   3883                             MOVE.W    D3,(A4)
00000CA0   1714                             MOVE.B    (A4),-(A3)
00000CA2   1703                             MOVE.B    D3,-(A3)
00000CA4   4ed1                             JMP       (A1)
00000CA6   3885                             MOVE.W    D5,(A4)
00000CA8   1714                             MOVE.B    (A4),-(A3)
00000CAA   1705                             MOVE.B    D5,-(A3)
00000CAC   4ed1                             JMP       (A1)
00000CAE   1707                             MOVE.B    D7,-(A3)
00000CB0   0246 000f                        AND.W     #0xf,D6
00000CB4   1732 60f0                        MOVE.B    (D_f0,A2,D6.W),-(A3)
00000CB8   4ed1                             JMP       (A1)

Bird Computer dasm68 dissassembler    version 1.0   Sat Jan 27 18:34:32 2024     Page 24

00000CBA   1207                             MOVE.B    D7,D1
00000CBC   141e                             MOVE.B    (A6)+,D2
00000CBE   de02                             ADD.B     D2,D7
00000CC0   40c6                             MOVE      SR,D6
00000CC2   4ed1                             JMP       (A1)
00000CC4   4280                             CLR       D0
00000CC6   601a                             BRA       B_ce2
00000CC8   7008                             MOVEQ     #0x8,D0
00000CCA   6016                             BRA       B_ce2
00000CCC   7010                             MOVEQ     #0x10,D0
00000CCE   6012                             BRA       B_ce2
00000CD0   7018                             MOVEQ     #0x18,D0
00000CD2   600e                             BRA       B_ce2
00000CD4   7020                             MOVEQ     #0x20,D0
00000CD6   600a                             BRA       B_ce2
00000CD8   7028                             MOVEQ     #0x28,D0
00000CDA   6006                             BRA       B_ce2
00000CDC   7030                             MOVEQ     #0x30,D0
00000CDE   6002                             BRA       B_ce2
00000CE0   7038                             MOVEQ     #0x38,D0
00000CE2   3f00                             MOVE.W    D0,-(A7)
00000CE4   200e                             MOVE      A6,D0
00000CE6   908d                             SUB       A5,D0
00000CE8   3880                             MOVE.W    D0,(A4)
00000CEA   1714                             MOVE.B    (A4),-(A3)
00000CEC   1700                             MOVE.B    D0,-(A3)
00000CEE   301f                             MOVE.W    (A7)+,D0
00000CF0   4df5 0000                        LEA       (D_00,A5,D0.W),A6
00000CF4   4ed1                             JMP       (A1)
00000CF6   44c6                             MOVE      D6,CCR
00000CF8   662a                             BNE       B_d24
00000CFA   4ed1                             JMP       (A1)
00000CFC   44c6                             MOVE      D6,CCR
00000CFE   6724                             BEQ       B_d24
00000D00   4ed1                             JMP       (A1)
00000D02   44c6                             MOVE      D6,CCR
00000D04   641e                             BCC       B_d24
00000D06   4ed1                             JMP       (A1)
00000D08   44c6                             MOVE      D6,CCR
00000D0A   6518                             BCS       B_d24
00000D0C   4ed1                             JMP       (A1)
00000D0E   44c6                             MOVE      D6,CCR
00000D10   6812                             BVC       B_d24
00000D12   4ed1                             JMP       (A1)
00000D14   44c6                             MOVE      D6,CCR
00000D16   690c                             BVS       B_d24
00000D18   4ed1                             JMP       (A1)
00000D1A   44c6                             MOVE      D6,CCR
00000D1C   6a06                             BPL       B_d24
00000D1E   4ed1                             JMP       (A1)
00000D20   44c6                             MOVE      D6,CCR
00000D22   6a0a                             BPL       B_d2e
00000D24   191b                             MOVE.B    (A3)+,-(A4)
00000D26   191b                             MOVE.B    (A3)+,-(A4)
00000D28   301c                             MOVE.W    (A4)+,D0
00000D2A   4df5 0800                        LEA       (D_00,A5,D0.L),A6
00000D2E   4ed1                             JMP       (A1)
00000D30   6712                             BEQ       B_d44

Bird Computer dasm68 dissassembler    version 1.0   Sat Jan 27 18:34:32 2024     Page 25

00000D32   7000                             MOVEQ     #0x0,D0
00000D34   101e                             MOVE.B    (A6)+,D0
00000D36   d040                             ADD.W     D0,D0
00000D38   41fa 0da4                        LEA       (D_0da4,PC),A0
00000D3C   d0f0 0000                        ADDA.W    (D_00,A0,D0.W),A0
00000D40   3005                             MOVE.W    D5,D0
00000D42   4ed0                             JMP       (A0)
00000D44   7000                             MOVEQ     #0x0,D0
00000D46   101e                             MOVE.B    (A6)+,D0
00000D48   4880                             EXT.W     D0
00000D4A   d045                             ADD.W     D5,D0
00000D4C   7200                             MOVEQ     #0x0,D1
00000D4E   121e                             MOVE.B    (A6)+,D1
00000D50   d241                             ADD.W     D1,D1
00000D52   41fa 0d8a                        LEA       (D_0d8a,PC),A0
00000D56   d0f0 1000                        ADDA.W    (D_00,A0,D1.W),A0
00000D5A   4ed0                             JMP       (A0)
00000D5C   141e                             MOVE.B    (A6)+,D2
00000D5E   1207                             MOVE.B    D7,D1
00000D60   cc12                             AND.B     (A2),D6
00000D62   e20e                             LSR.B     #1,D6
00000D64   df02                             ADDX.B    D2,D7
00000D66   40c6                             MOVE      SR,D6
00000D68   4ed1                             JMP       (A1)
00000D6A   3943 0004                        MOVE.W    D3,(D_0004,A4)
00000D6E   101e                             MOVE.B    (A6)+,D0
00000D70   4281                             CLR       D1
00000D72   4ead f000                        JSR       (D_f000,A5)
00000D76   4283                             CLR       D3
00000D78   362c 0004                        MOVE.W    (D_0004,A4),D3
00000D7C   4ed1                             JMP       (A1)
00000D7E   1407                             MOVE.B    D7,D2
00000D80   121e                             MOVE.B    (A6)+,D1
00000D82   9e01                             SUB.B     D1,D7
00000D84   40c6                             MOVE      SR,D6
00000D86   4ed1                             JMP       (A1)
00000D88   3004                             MOVE.W    D4,D0
00000D8A   382c 000c                        MOVE.W    (D_000c,A4),D4
00000D8E   3940 000c                        MOVE.W    D0,(D_000c,A4)
00000D92   3003                             MOVE.W    D3,D0
00000D94   362c 000e                        MOVE.W    (D_000e,A4),D3
00000D98   3940 000e                        MOVE.W    D0,(D_000e,A4)
00000D9C   3005                             MOVE.W    D5,D0
00000D9E   3a2c 0010                        MOVE.W    (D_0010,A4),D5
00000DA2   3940 0010                        MOVE.W    D0,(D_0010,A4)
00000DA6   4ed1                             JMP       (A1)
00000DA8   3943 0004                        MOVE.W    D3,(D_0004,A4)
00000DAC   101e                             MOVE.B    (A6)+,D0
00000DAE   7201                             MOVEQ     #0x1,D1
00000DB0   4ead f000                        JSR       (D_f000,A5)
00000DB4   4283                             CLR       D3
00000DB6   362c 0004                        MOVE.W    (D_0004,A4),D3
00000DBA   4ed1                             JMP       (A1)
00000DBC   121e                             MOVE.B    (A6)+,D1
00000DBE   1407                             MOVE.B    D7,D2
00000DC0   cc12                             AND.B     (A2),D6
00000DC2   e20e                             LSR.B     #1,D6
00000DC4   9f01                             SUBX.B    D1,D7

Bird Computer dasm68 dissassembler    version 1.0   Sat Jan 27 18:34:32 2024     Page 26

00000DC6   40c6                             MOVE      SR,D6
00000DC8   4ed1                             JMP       (A1)
00000DCA   191b                             MOVE.B    (A3)+,-(A4)
00000DCC   191b                             MOVE.B    (A3)+,-(A4)
00000DCE   301c                             MOVE.W    (A4)+,D0
00000DD0   3905                             MOVE.W    D5,-(A4)
00000DD2   171c                             MOVE.B    (A4)+,-(A3)
00000DD4   171c                             MOVE.B    (A4)+,-(A3)
00000DD6   3a00                             MOVE.W    D0,D5
00000DD8   4ed1                             JMP       (A1)
00000DDA   ce1e                             AND.B     (A6)+,D7
00000DDC   1c32 7002                        MOVE.B    (D_02,A2,D7.W),D6
00000DE0   4ed1                             JMP       (A1)
00000DE2   4df5 5800                        LEA       (D_00,A5,D5.L),A6
00000DE6   4ed1                             JMP       (A1)
00000DE8   c745                             EXG       D3,D5
00000DEA   4ed1                             JMP       (A1)
00000DEC   4280                             CLR       D0
00000DEE   101e                             MOVE.B    (A6)+,D0
00000DF0   41fa 0eec                        LEA       (D_0eec,PC),A0
00000DF4   d040                             ADD.W     D0,D0
00000DF6   3030 0000                        MOVE.W    (D_00,A0,D0.W),D0
00000DFA   4a40                             TST.W     D0
00000DFC   6706                             BEQ       B_e04
00000DFE   4eb0 0000                        JSR       (D_00,A0,D0.W)
00000E02   4ed1                             JMP       (A1)
00000E04   534e                             SUBQ.W    #1,A6
00000E06   6000 0a94                        BRA.L     B_189c
00000E0A   101e                             MOVE.B    (A6)+,D0
00000E0C   b107                             EOR.B     D0,D7
00000E0E   1c32 7002                        MOVE.B    (D_02,A2,D7.W),D6
00000E12   4ed1                             JMP       (A1)
00000E14   4ed1                             JMP       (A1)
00000E16   8e1e                             OR.B      (A6)+,D7
00000E18   1c32 7002                        MOVE.B    (D_02,A2,D7.W),D6
00000E1C   4ed1                             JMP       (A1)
00000E1E   47f5 5800                        LEA       (D_00,A5,D5.L),A3
00000E22   4ed1                             JMP       (A1)
00000E24   4ed1                             JMP       (A1)
00000E26   be1e                             CMP.B     (A6)+,D7
00000E28   40c6                             MOVE      SR,D6
00000E2A   4ed1                             JMP       (A1)
00000E2C   3004                             MOVE.W    D4,D0
00000E2E   7201                             MOVEQ     #0x1,D1
00000E30   3943 0004                        MOVE.W    D3,(D_0004,A4)
00000E34   4ead f000                        JSR       (D_f000,A5)
00000E38   4283                             CLR       D3
00000E3A   362c 0004                        MOVE.W    (D_0004,A4),D3
00000E3E   4e75                             RTS
00000E40   3004                             MOVE.W    D4,D0
00000E42   4281                             CLR       D1
00000E44   3943 0004                        MOVE.W    D3,(D_0004,A4)
00000E48   4ead f000                        JSR       (D_f000,A5)
00000E4C   4283                             CLR       D3
00000E4E   362c 0004                        MOVE.W    (D_0004,A4),D3
00000E52   4e75                             RTS
00000E54   cc12                             AND.B     (A2),D6
00000E56   e20e                             LSR.B     #1,D6

Bird Computer dasm68 dissassembler    version 1.0   Sat Jan 27 18:34:32 2024     Page 27

00000E58   9b44                             SUBX.W    D4,D5
00000E5A   40c6                             MOVE      SR,D6
00000E5C   4e75                             RTS
00000E5E   191e                             MOVE.B    (A6)+,-(A4)
00000E60   191e                             MOVE.B    (A6)+,-(A4)
00000E62   301c                             MOVE.W    (A4)+,D0
00000E64   41f5 0800                        LEA       (D_00,A5,D0.L),A0
00000E68   3884                             MOVE.W    D4,(A4)
00000E6A   10c4                             MOVE.B    D4,(A0)+
00000E6C   1094                             MOVE.B    (A4),(A0)
00000E6E   4e75                             RTS
00000E70   4407                             NEG.B     D7
00000E72   40c6                             MOVE      SR,D6
00000E74   4e75                             RTS
00000E76   cc12                             AND.B     (A2),D6
00000E78   e20e                             LSR.B     #1,D6
00000E7A   db44                             ADDX.W    D4,D5
00000E7C   40c6                             MOVE      SR,D6
00000E7E   4e75                             RTS
00000E80   191e                             MOVE.B    (A6)+,-(A4)
00000E82   191e                             MOVE.B    (A6)+,-(A4)
00000E84   301c                             MOVE.W    (A4)+,D0
00000E86   41f5 0800                        LEA       (D_00,A5,D0.L),A0
00000E8A   1918                             MOVE.B    (A0)+,-(A4)
00000E8C   1910                             MOVE.B    (A0),-(A4)
00000E8E   381c                             MOVE.W    (A4)+,D4
00000E90   4e75                             RTS
00000E92   cc12                             AND.B     (A2),D6
00000E94   e20e                             LSR.B     #1,D6
00000E96   9b43                             SUBX.W    D3,D5
00000E98   40c6                             MOVE      SR,D6
00000E9A   4e75                             RTS
00000E9C   191e                             MOVE.B    (A6)+,-(A4)
00000E9E   191e                             MOVE.B    (A6)+,-(A4)
00000EA0   301c                             MOVE.W    (A4)+,D0
00000EA2   41f5 0800                        LEA       (D_00,A5,D0.L),A0
00000EA6   3883                             MOVE.W    D3,(A4)
00000EA8   10c3                             MOVE.B    D3,(A0)+
00000EAA   1094                             MOVE.B    (A4),(A0)
00000EAC   4e75                             RTS
00000EAE   cc12                             AND.B     (A2),D6
00000EB0   e20e                             LSR.B     #1,D6
00000EB2   db43                             ADDX.W    D3,D5
00000EB4   40c6                             MOVE      SR,D6
00000EB6   4e75                             RTS
00000EB8   191e                             MOVE.B    (A6)+,-(A4)
00000EBA   191e                             MOVE.B    (A6)+,-(A4)
00000EBC   301c                             MOVE.W    (A4)+,D0
00000EBE   41f5 0800                        LEA       (D_00,A5,D0.L),A0
00000EC2   1918                             MOVE.B    (A0)+,-(A4)
00000EC4   1918                             MOVE.B    (A0)+,-(A4)
00000EC6   361c                             MOVE.W    (A4)+,D3
00000EC8   4e75                             RTS
00000ECA   4606                             NOT.B     D6
00000ECC   4e75                             RTS
00000ECE   cc12                             AND.B     (A2),D6
00000ED0   e20e                             LSR.B     #1,D6
00000ED2   9b45                             SUBX.W    D5,D5

Bird Computer dasm68 dissassembler    version 1.0   Sat Jan 27 18:34:32 2024     Page 28

00000ED4   40c6                             MOVE      SR,D6
00000ED6   4e75                             RTS
00000ED8   191e                             MOVE.B    (A6)+,-(A4)
00000EDA   191e                             MOVE.B    (A6)+,-(A4)
00000EDC   301c                             MOVE.W    (A4)+,D0
00000EDE   41f5 0800                        LEA       (D_00,A5,D0.L),A0
00000EE2   3885                             MOVE.W    D5,(A4)
00000EE4   10c5                             MOVE.B    D5,(A0)+
00000EE6   1094                             MOVE.B    (A4),(A0)
00000EE8   4e75                             RTS
00000EEA   1007                             MOVE.B    D7,D0
00000EEC   0200 000f                        AND.B     #0xf,D0
00000EF0   e908                             LSL.B     #4,D0
00000EF2   0207 00f0                        AND.B     #0xf0,D7
00000EF6   41f5 5800                        LEA       (D_00,A5,D5.L),A0
00000EFA   1210                             MOVE.B    (A0),D1
00000EFC   1401                             MOVE.B    D1,D2
00000EFE   e809                             LSR.B     #4,D1
00000F00   8200                             OR.B      D0,D1
00000F02   1081                             MOVE.B    D1,(A0)
00000F04   0202 000f                        AND.B     #0xf,D2
00000F08   8e02                             OR.B      D2,D7
00000F0A   cc12                             AND.B     (A2),D6
00000F0C   8c32 7002                        OR.B      (D_02,A2,D7.W),D6
00000F10   4e75                             RTS
00000F12   cc12                             AND.B     (A2),D6
00000F14   e20e                             LSR.B     #1,D6
00000F16   db45                             ADDX.W    D5,D5
00000F18   40c6                             MOVE      SR,D6
00000F1A   4e75                             RTS
00000F1C   191e                             MOVE.B    (A6)+,-(A4)
00000F1E   191e                             MOVE.B    (A6)+,-(A4)
00000F20   301c                             MOVE.W    (A4)+,D0
00000F22   41f5 0800                        LEA       (D_00,A5,D0.L),A0
00000F26   1918                             MOVE.B    (A0)+,-(A4)
00000F28   1910                             MOVE.B    (A0),-(A4)
00000F2A   3a1c                             MOVE.W    (A4)+,D5
00000F2C   4e75                             RTS
00000F2E   1007                             MOVE.B    D7,D0
00000F30   0200 000f                        AND.B     #0xf,D0
00000F34   0207 00f0                        AND.B     #0xf0,D7
00000F38   41f5 5800                        LEA       (D_00,A5,D5.L),A0
00000F3C   1210                             MOVE.B    (A0),D1
00000F3E   1401                             MOVE.B    D1,D2
00000F40   e909                             LSL.B     #4,D1
00000F42   8200                             OR.B      D0,D1
00000F44   1081                             MOVE.B    D1,(A0)
00000F46   e80a                             LSR.B     #4,D2
00000F48   8e02                             OR.B      D2,D7
00000F4A   cc12                             AND.B     (A2),D6
00000F4C   8c32 7002                        OR.B      (D_02,A2,D7.W),D6
00000F50   4e75                             RTS
00000F52   200b                             MOVE      A3,D0
00000F54   908d                             SUB       A5,D0
00000F56   cc12                             AND.B     (A2),D6
00000F58   e20e                             LSR.B     #1,D6
00000F5A   9b40                             SUBX.W    D0,D5
00000F5C   40c6                             MOVE      SR,D6

Bird Computer dasm68 dissassembler    version 1.0   Sat Jan 27 18:34:32 2024     Page 29

00000F5E   4e75                             RTS
00000F60   191e                             MOVE.B    (A6)+,-(A4)
00000F62   191e                             MOVE.B    (A6)+,-(A4)
00000F64   301c                             MOVE.W    (A4)+,D0
00000F66   41f5 0800                        LEA       (D_00,A5,D0.L),A0
00000F6A   200b                             MOVE      A3,D0
00000F6C   908d                             SUB       A5,D0
00000F6E   10c0                             MOVE.B    D0,(A0)+
00000F70   e058                             ROR.W     #8,D0
00000F72   1080                             MOVE.B    D0,(A0)
00000F74   4e75                             RTS
00000F76   200b                             MOVE      A3,D0
00000F78   908d                             SUB       A5,D0
00000F7A   cc12                             AND.B     (A2),D6
00000F7C   e20e                             LSR.B     #1,D6
00000F7E   db40                             ADDX.W    D0,D5
00000F80   40c6                             MOVE      SR,D6
00000F82   4e75                             RTS
00000F84   191e                             MOVE.B    (A6)+,-(A4)
00000F86   191e                             MOVE.B    (A6)+,-(A4)
00000F88   301c                             MOVE.W    (A4)+,D0
00000F8A   41f5 0800                        LEA       (D_00,A5,D0.L),A0
00000F8E   1918                             MOVE.B    (A0)+,-(A4)
00000F90   1910                             MOVE.B    (A0),-(A4)
00000F92   301c                             MOVE.W    (A4)+,D0
00000F94   47f5 0800                        LEA       (D_00,A5,D0.L),A3
00000F98   4e75                             RTS
00000F9A   0886 0001                        BCLR      #1,D6
00000F9E   1bb5 5800 3800                   MOVE.B    (D_00,A5,D5.L),(D_00,A5,D3.L)
00000FA4   5243                             ADDQ.W    #1,D3
00000FA6   5245                             ADDQ.W    #1,D5
00000FA8   5344                             SUBQ.W    #1,D4
00000FAA   6704                             BEQ       B_fb0
00000FAC   08c6 0001                        BSET      #1,D6
00000FB0   4e75                             RTS
00000FB2   be35 5800                        CMP.B     (D_00,A5,D5.L),D7
00000FB6   40c0                             MOVE      SR,D0
00000FB8   cc12                             AND.B     (A2),D6
00000FBA   0200 000c                        AND.B     #0xc,D0
00000FBE   8c00                             OR.B      D0,D6
00000FC0   5245                             ADDQ.W    #1,D5
00000FC2   5344                             SUBQ.W    #1,D4
00000FC4   6704                             BEQ       B_fca
00000FC6   08c6 0001                        BSET      #1,D6
00000FCA   4e75                             RTS
00000FCC   7201                             MOVEQ     #0x1,D1
00000FCE   1004                             MOVE.B    D4,D0
00000FD0   3943 0004                        MOVE.W    D3,(D_0004,A4)
00000FD4   4ead f000                        JSR       (D_f000,A5)
00000FD8   4283                             CLR       D3
00000FDA   362c 0004                        MOVE.W    (D_0004,A4),D3
00000FDE   0444 0100                        SUB.W     #0x100,D4
00000FE2   5245                             ADDQ.W    #1,D5
00000FE4   4e75                             RTS
00000FE6   7200                             MOVEQ     #0x0,D1
00000FE8   6000 ffe4                        BRA.L     B_10fce
00000FEC   0886 0001                        BCLR      #1,D6
00000FF0   1bb5 5800 3800                   MOVE.B    (D_00,A5,D5.L),(D_00,A5,D3.L)

Bird Computer dasm68 dissassembler    version 1.0   Sat Jan 27 18:34:32 2024     Page 30

00000FF6   5343                             SUBQ.W    #1,D3
00000FF8   5345                             SUBQ.W    #1,D5
00000FFA   5344                             SUBQ.W    #1,D4
00000FFC   6704                             BEQ       B_1002
00000FFE   08c6 0001                        BSET      #1,D6
00001002   4e75                             RTS
00001004   be35 5800                        CMP.B     (D_00,A5,D5.L),D7
00001008   40c0                             MOVE      SR,D0
0000100A   cc12                             AND.B     (A2),D6
0000100C   0200 000c                        AND.B     #0xc,D0
00001010   8c00                             OR.B      D0,D6
00001012   5345                             SUBQ.W    #1,D5
00001014   5344                             SUBQ.W    #1,D4
00001016   6704                             BEQ       B_101c
00001018   08c6 0001                        BSET      #1,D6
0000101C   4e75                             RTS
0000101E   7201                             MOVEQ     #0x1,D1
00001020   1004                             MOVE.B    D4,D0
00001022   3943 0004                        MOVE.W    D3,(D_0004,A4)
00001026   4ead f000                        JSR       (D_f000,A5)
0000102A   4283                             CLR       D3
0000102C   362c 0004                        MOVE.W    (D_0004,A4),D3
00001030   0444 0100                        SUB.W     #0x100,D4
00001034   5345                             SUBQ.W    #1,D5
00001036   4e75                             RTS
00001038   7200                             MOVEQ     #0x0,D1
0000103A   6000 ffe4                        BRA.L     B_11020
0000103E   41f5 5800                        LEA       (D_00,A5,D5.L),A0
00001042   43f5 3800                        LEA       (D_00,A5,D3.L),A1
00001046   d644                             ADD.W     D4,D3
00001048   da44                             ADD.W     D4,D5
0000104A   12d8                             MOVE.B    (A0)+,(A1)+
0000104C   5344                             SUBQ.W    #1,D4
0000104E   66fa                             BNE       B_104a
00001050   0886 0001                        BCLR      #1,D6
00001054   4284                             CLR       D4
00001056   43fa f086                        LEA       (D_f086,PC),A1
0000105A   4e75                             RTS
0000105C   6100 ff54                        BSR       B_10fb2
00001060   44c6                             MOVE      D6,CCR
00001062   6706                             BEQ       B_106a
00001064   0806 0001                        BTST      #1,D6
00001068   66f2                             BNE       B_105c
0000106A   4e75                             RTS
0000106C   6100 ff5e                        BSR       B_10fcc
00001070   3884                             MOVE.W    D4,(A4)
00001072   4a14                             TST.B     (A4)
00001074   66f6                             BNE       B_106c
00001076   4e75                             RTS
00001078   6100 ff6c                        BSR       B_10fe6
0000107C   3884                             MOVE.W    D4,(A4)
0000107E   4a14                             TST.B     (A4)
00001080   66f6                             BNE       B_1078
00001082   4e75                             RTS
00001084   41f5 5801                        LEA       (D_01,A5,D5.L),A0
00001088   43f5 3801                        LEA       (D_01,A5,D3.L),A1
0000108C   9644                             SUB.W     D4,D3
0000108E   9a44                             SUB.W     D4,D5

Bird Computer dasm68 dissassembler    version 1.0   Sat Jan 27 18:34:32 2024     Page 31

00001090   1320                             MOVE.B    -(A0),-(A1)
00001092   5344                             SUBQ.W    #1,D4
00001094   6600 fffa                        BNE.L     B_11090
00001098   0886 0001                        BCLR      #1,D6
0000109C   4284                             CLR       D4
0000109E   43fa f03e                        LEA       (D_f03e,PC),A1
000010A2   4e75                             RTS
000010A4   6100 ff5e                        BSR       B_11004
000010A8   44c6                             MOVE      D6,CCR
000010AA   6706                             BEQ       B_10b2
000010AC   0806 0001                        BTST      #1,D6
000010B0   66f2                             BNE       B_10a4
000010B2   4e75                             RTS
000010B4   6100 ff68                        BSR       B_1101e
000010B8   3884                             MOVE.W    D4,(A4)
000010BA   4a14                             TST.B     (A4)
000010BC   66f6                             BNE       B_10b4
000010BE   4e75                             RTS
000010C0   6100 ff76                        BSR       B_11038
000010C4   3884                             MOVE.W    D4,(A4)
000010C6   4a14                             TST.B     (A4)
000010C8   66f6                             BNE       B_10c0
000010CA   4e75                             RTS
000010CC   3884                             MOVE.W    D4,(A4)
000010CE   1014                             MOVE.B    (A4),D0
000010D0   e318                             ROL.B     #1,D0
000010D2   40c6                             MOVE      SR,D6
000010D4   1880                             MOVE.B    D0,(A4)
000010D6   3814                             MOVE.W    (A4),D4
000010D8   4ed1                             JMP       (A1)
000010DA   e31c                             ROL.B     #1,D4
000010DC   40c6                             MOVE      SR,D6
000010DE   4ed1                             JMP       (A1)
000010E0   3883                             MOVE.W    D3,(A4)
000010E2   1014                             MOVE.B    (A4),D0
000010E4   e318                             ROL.B     #1,D0
000010E6   40c6                             MOVE      SR,D6
000010E8   1880                             MOVE.B    D0,(A4)
000010EA   3614                             MOVE.W    (A4),D3
000010EC   4ed1                             JMP       (A1)
000010EE   e31b                             ROL.B     #1,D3
000010F0   40c6                             MOVE      SR,D6
000010F2   4ed1                             JMP       (A1)
000010F4   3885                             MOVE.W    D5,(A4)
000010F6   1014                             MOVE.B    (A4),D0
000010F8   e318                             ROL.B     #1,D0
000010FA   40c6                             MOVE      SR,D6
000010FC   1880                             MOVE.B    D0,(A4)
000010FE   3a14                             MOVE.W    (A4),D5
00001100   4ed1                             JMP       (A1)
00001102   e31d                             ROL.B     #1,D5
00001104   40c6                             MOVE      SR,D6
00001106   4ed1                             JMP       (A1)
00001108   1235 0800                        MOVE.B    (D_00,A5,D0.L),D1
0000110C   e319                             ROL.B     #1,D1
0000110E   40c6                             MOVE      SR,D6
00001110   1b81 0800                        MOVE.B    D1,(D_00,A5,D0.L)
00001114   4ed1                             JMP       (A1)

Bird Computer dasm68 dissassembler    version 1.0   Sat Jan 27 18:34:32 2024     Page 32

00001116   e31f                             ROL.B     #1,D7
00001118   40c6                             MOVE      SR,D6
0000111A   4ed1                             JMP       (A1)
0000111C   3884                             MOVE.W    D4,(A4)
0000111E   1014                             MOVE.B    (A4),D0
00001120   e218                             ROR.B     #1,D0
00001122   40c6                             MOVE      SR,D6
00001124   1880                             MOVE.B    D0,(A4)
00001126   3814                             MOVE.W    (A4),D4
00001128   4ed1                             JMP       (A1)
0000112A   e21c                             ROR.B     #1,D4
0000112C   40c6                             MOVE      SR,D6
0000112E   4ed1                             JMP       (A1)
00001130   3883                             MOVE.W    D3,(A4)
00001132   1014                             MOVE.B    (A4),D0
00001134   e218                             ROR.B     #1,D0
00001136   40c6                             MOVE      SR,D6
00001138   1880                             MOVE.B    D0,(A4)
0000113A   3614                             MOVE.W    (A4),D3
0000113C   4ed1                             JMP       (A1)
0000113E   e21b                             ROR.B     #1,D3
00001140   40c6                             MOVE      SR,D6
00001142   4ed1                             JMP       (A1)
00001144   3885                             MOVE.W    D5,(A4)
00001146   1014                             MOVE.B    (A4),D0
00001148   e218                             ROR.B     #1,D0
0000114A   40c6                             MOVE      SR,D6
0000114C   1880                             MOVE.B    D0,(A4)
0000114E   3a14                             MOVE.W    (A4),D5
00001150   4ed1                             JMP       (A1)
00001152   e21d                             ROR.B     #1,D5
00001154   40c6                             MOVE      SR,D6
00001156   4ed1                             JMP       (A1)
00001158   1235 0800                        MOVE.B    (D_00,A5,D0.L),D1
0000115C   e219                             ROR.B     #1,D1
0000115E   40c6                             MOVE      SR,D6
00001160   1b81 0800                        MOVE.B    D1,(D_00,A5,D0.L)
00001164   4ed1                             JMP       (A1)
00001166   e21f                             ROR.B     #1,D7
00001168   40c6                             MOVE      SR,D6
0000116A   4ed1                             JMP       (A1)
0000116C   3884                             MOVE.W    D4,(A4)
0000116E   1014                             MOVE.B    (A4),D0
00001170   e20e                             LSR.B     #1,D6
00001172   e310                             ROXL.B    #1,D0
00001174   40c6                             MOVE      SR,D6
00001176   1880                             MOVE.B    D0,(A4)
00001178   3814                             MOVE.W    (A4),D4
0000117A   4ed1                             JMP       (A1)
0000117C   e20e                             LSR.B     #1,D6
0000117E   e314                             ROXL.B    #1,D4
00001180   40c6                             MOVE      SR,D6
00001182   4ed1                             JMP       (A1)
00001184   3883                             MOVE.W    D3,(A4)
00001186   1014                             MOVE.B    (A4),D0
00001188   e20e                             LSR.B     #1,D6
0000118A   e310                             ROXL.B    #1,D0
0000118C   40c6                             MOVE      SR,D6

Bird Computer dasm68 dissassembler    version 1.0   Sat Jan 27 18:34:32 2024     Page 33

0000118E   1880                             MOVE.B    D0,(A4)
00001190   3614                             MOVE.W    (A4),D3
00001192   4ed1                             JMP       (A1)
00001194   e20e                             LSR.B     #1,D6
00001196   e313                             ROXL.B    #1,D3
00001198   40c6                             MOVE      SR,D6
0000119A   4ed1                             JMP       (A1)
0000119C   3885                             MOVE.W    D5,(A4)
0000119E   1014                             MOVE.B    (A4),D0
000011A0   e20e                             LSR.B     #1,D6
000011A2   e310                             ROXL.B    #1,D0
000011A4   40c6                             MOVE      SR,D6
000011A6   1880                             MOVE.B    D0,(A4)
000011A8   3a14                             MOVE.W    (A4),D5
000011AA   4ed1                             JMP       (A1)
000011AC   e20e                             LSR.B     #1,D6
000011AE   e315                             ROXL.B    #1,D5
000011B0   40c6                             MOVE      SR,D6
000011B2   4ed1                             JMP       (A1)
000011B4   1235 0800                        MOVE.B    (D_00,A5,D0.L),D1
000011B8   e20e                             LSR.B     #1,D6
000011BA   e311                             ROXL.B    #1,D1
000011BC   40c6                             MOVE      SR,D6
000011BE   1b81 0800                        MOVE.B    D1,(D_00,A5,D0.L)
000011C2   4ed1                             JMP       (A1)
000011C4   e20e                             LSR.B     #1,D6
000011C6   e317                             ROXL.B    #1,D7
000011C8   40c6                             MOVE      SR,D6
000011CA   4ed1                             JMP       (A1)
000011CC   3884                             MOVE.W    D4,(A4)
000011CE   1014                             MOVE.B    (A4),D0
000011D0   e20e                             LSR.B     #1,D6
000011D2   e210                             ROXR.B    #1,D0
000011D4   40c6                             MOVE      SR,D6
000011D6   1880                             MOVE.B    D0,(A4)
000011D8   3814                             MOVE.W    (A4),D4
000011DA   4ed1                             JMP       (A1)
000011DC   e20e                             LSR.B     #1,D6
000011DE   e214                             ROXR.B    #1,D4
000011E0   40c6                             MOVE      SR,D6
000011E2   4ed1                             JMP       (A1)
000011E4   3883                             MOVE.W    D3,(A4)
000011E6   1014                             MOVE.B    (A4),D0
000011E8   e20e                             LSR.B     #1,D6
000011EA   e210                             ROXR.B    #1,D0
000011EC   40c6                             MOVE      SR,D6
000011EE   1880                             MOVE.B    D0,(A4)
000011F0   3614                             MOVE.W    (A4),D3
000011F2   4ed1                             JMP       (A1)
000011F4   e20e                             LSR.B     #1,D6
000011F6   e213                             ROXR.B    #1,D3
000011F8   40c6                             MOVE      SR,D6
000011FA   4ed1                             JMP       (A1)
000011FC   3885                             MOVE.W    D5,(A4)
000011FE   1014                             MOVE.B    (A4),D0
00001200   e20e                             LSR.B     #1,D6
00001202   e210                             ROXR.B    #1,D0
00001204   40c6                             MOVE      SR,D6

Bird Computer dasm68 dissassembler    version 1.0   Sat Jan 27 18:34:32 2024     Page 34

00001206   1880                             MOVE.B    D0,(A4)
00001208   3a14                             MOVE.W    (A4),D5
0000120A   4ed1                             JMP       (A1)
0000120C   e20e                             LSR.B     #1,D6
0000120E   e215                             ROXR.B    #1,D5
00001210   40c6                             MOVE      SR,D6
00001212   4ed1                             JMP       (A1)
00001214   1235 0800                        MOVE.B    (D_00,A5,D0.L),D1
00001218   e20e                             LSR.B     #1,D6
0000121A   e211                             ROXR.B    #1,D1
0000121C   40c6                             MOVE      SR,D6
0000121E   1b81 0800                        MOVE.B    D1,(D_00,A5,D0.L)
00001222   4ed1                             JMP       (A1)
00001224   e20e                             LSR.B     #1,D6
00001226   e217                             ROXR.B    #1,D7
00001228   40c6                             MOVE      SR,D6
0000122A   4ed1                             JMP       (A1)
0000122C   3884                             MOVE.W    D4,(A4)
0000122E   1014                             MOVE.B    (A4),D0
00001230   e308                             LSL.B     #1,D0
00001232   40c6                             MOVE      SR,D6
00001234   1880                             MOVE.B    D0,(A4)
00001236   3814                             MOVE.W    (A4),D4
00001238   4ed1                             JMP       (A1)
0000123A   e30c                             LSL.B     #1,D4
0000123C   40c6                             MOVE      SR,D6
0000123E   4ed1                             JMP       (A1)
00001240   3883                             MOVE.W    D3,(A4)
00001242   1014                             MOVE.B    (A4),D0
00001244   e308                             LSL.B     #1,D0
00001246   40c6                             MOVE      SR,D6
00001248   1880                             MOVE.B    D0,(A4)
0000124A   3614                             MOVE.W    (A4),D3
0000124C   4ed1                             JMP       (A1)
0000124E   e30b                             LSL.B     #1,D3
00001250   40c6                             MOVE      SR,D6
00001252   4ed1                             JMP       (A1)
00001254   3885                             MOVE.W    D5,(A4)
00001256   1014                             MOVE.B    (A4),D0
00001258   e308                             LSL.B     #1,D0
0000125A   40c6                             MOVE      SR,D6
0000125C   1880                             MOVE.B    D0,(A4)
0000125E   3a14                             MOVE.W    (A4),D5
00001260   4ed1                             JMP       (A1)
00001262   e30d                             LSL.B     #1,D5
00001264   40c6                             MOVE      SR,D6
00001266   4ed1                             JMP       (A1)
00001268   1235 0800                        MOVE.B    (D_00,A5,D0.L),D1
0000126C   e309                             LSL.B     #1,D1
0000126E   40c6                             MOVE      SR,D6
00001270   1b81 0800                        MOVE.B    D1,(D_00,A5,D0.L)
00001274   4ed1                             JMP       (A1)
00001276   e30f                             LSL.B     #1,D7
00001278   40c6                             MOVE      SR,D6
0000127A   4ed1                             JMP       (A1)
0000127C   3884                             MOVE.W    D4,(A4)
0000127E   1014                             MOVE.B    (A4),D0
00001280   e200                             ASR.B     #1,D0

Bird Computer dasm68 dissassembler    version 1.0   Sat Jan 27 18:34:32 2024     Page 35

00001282   40c6                             MOVE      SR,D6
00001284   1880                             MOVE.B    D0,(A4)
00001286   3814                             MOVE.W    (A4),D4
00001288   4ed1                             JMP       (A1)
0000128A   e204                             ASR.B     #1,D4
0000128C   40c6                             MOVE      SR,D6
0000128E   4ed1                             JMP       (A1)
00001290   3883                             MOVE.W    D3,(A4)
00001292   1014                             MOVE.B    (A4),D0
00001294   e200                             ASR.B     #1,D0
00001296   40c6                             MOVE      SR,D6
00001298   1880                             MOVE.B    D0,(A4)
0000129A   3614                             MOVE.W    (A4),D3
0000129C   4ed1                             JMP       (A1)
0000129E   e203                             ASR.B     #1,D3
000012A0   40c6                             MOVE      SR,D6
000012A2   4ed1                             JMP       (A1)
000012A4   3885                             MOVE.W    D5,(A4)
000012A6   1014                             MOVE.B    (A4),D0
000012A8   e200                             ASR.B     #1,D0
000012AA   40c6                             MOVE      SR,D6
000012AC   1880                             MOVE.B    D0,(A4)
000012AE   3a14                             MOVE.W    (A4),D5
000012B0   4ed1                             JMP       (A1)
000012B2   e205                             ASR.B     #1,D5
000012B4   40c6                             MOVE      SR,D6
000012B6   4ed1                             JMP       (A1)
000012B8   1235 0800                        MOVE.B    (D_00,A5,D0.L),D1
000012BC   e201                             ASR.B     #1,D1
000012BE   40c6                             MOVE      SR,D6
000012C0   1b81 0800                        MOVE.B    D1,(D_00,A5,D0.L)
000012C4   4ed1                             JMP       (A1)
000012C6   e207                             ASR.B     #1,D7
000012C8   40c6                             MOVE      SR,D6
000012CA   4ed1                             JMP       (A1)
000012CC   3884                             MOVE.W    D4,(A4)
000012CE   1014                             MOVE.B    (A4),D0
000012D0   e300                             ASL.B     #1,D0
000012D2   40c6                             MOVE      SR,D6
000012D4   1880                             MOVE.B    D0,(A4)
000012D6   3814                             MOVE.W    (A4),D4
000012D8   4ed1                             JMP       (A1)
000012DA   e304                             ASL.B     #1,D4
000012DC   40c6                             MOVE      SR,D6
000012DE   4ed1                             JMP       (A1)
000012E0   3883                             MOVE.W    D3,(A4)
000012E2   1014                             MOVE.B    (A4),D0
000012E4   e300                             ASL.B     #1,D0
000012E6   40c6                             MOVE      SR,D6
000012E8   1880                             MOVE.B    D0,(A4)
000012EA   3614                             MOVE.W    (A4),D3
000012EC   4ed1                             JMP       (A1)
000012EE   e303                             ASL.B     #1,D3
000012F0   40c6                             MOVE      SR,D6
000012F2   4ed1                             JMP       (A1)
000012F4   3885                             MOVE.W    D5,(A4)
000012F6   1014                             MOVE.B    (A4),D0
000012F8   e300                             ASL.B     #1,D0

Bird Computer dasm68 dissassembler    version 1.0   Sat Jan 27 18:34:32 2024     Page 36

000012FA   40c6                             MOVE      SR,D6
000012FC   1880                             MOVE.B    D0,(A4)
000012FE   3a14                             MOVE.W    (A4),D5
00001300   4ed1                             JMP       (A1)
00001302   e305                             ASL.B     #1,D5
00001304   40c6                             MOVE      SR,D6
00001306   4ed1                             JMP       (A1)
00001308   1235 0800                        MOVE.B    (D_00,A5,D0.L),D1
0000130C   e301                             ASL.B     #1,D1
0000130E   40c6                             MOVE      SR,D6
00001310   1b81 0800                        MOVE.B    D1,(D_00,A5,D0.L)
00001314   4ed1                             JMP       (A1)
00001316   e307                             ASL.B     #1,D7
00001318   40c6                             MOVE      SR,D6
0000131A   4ed1                             JMP       (A1)
0000131C   3884                             MOVE.W    D4,(A4)
0000131E   1014                             MOVE.B    (A4),D0
00001320   e208                             LSR.B     #1,D0
00001322   40c6                             MOVE      SR,D6
00001324   1880                             MOVE.B    D0,(A4)
00001326   3814                             MOVE.W    (A4),D4
00001328   4ed1                             JMP       (A1)
0000132A   e20c                             LSR.B     #1,D4
0000132C   40c6                             MOVE      SR,D6
0000132E   4ed1                             JMP       (A1)
00001330   3883                             MOVE.W    D3,(A4)
00001332   1014                             MOVE.B    (A4),D0
00001334   e208                             LSR.B     #1,D0
00001336   40c6                             MOVE      SR,D6
00001338   1880                             MOVE.B    D0,(A4)
0000133A   3614                             MOVE.W    (A4),D3
0000133C   4ed1                             JMP       (A1)
0000133E   e20b                             LSR.B     #1,D3
00001340   40c6                             MOVE      SR,D6
00001342   4ed1                             JMP       (A1)
00001344   3885                             MOVE.W    D5,(A4)
00001346   1014                             MOVE.B    (A4),D0
00001348   e208                             LSR.B     #1,D0
0000134A   40c6                             MOVE      SR,D6
0000134C   1880                             MOVE.B    D0,(A4)
0000134E   3a14                             MOVE.W    (A4),D5
00001350   4ed1                             JMP       (A1)
00001352   e20d                             LSR.B     #1,D5
00001354   40c6                             MOVE      SR,D6
00001356   4ed1                             JMP       (A1)
00001358   1235 0800                        MOVE.B    (D_00,A5,D0.L),D1
0000135C   e209                             LSR.B     #1,D1
0000135E   40c6                             MOVE      SR,D6
00001360   1b81 0800                        MOVE.B    D1,(D_00,A5,D0.L)
00001364   4ed1                             JMP       (A1)
00001366   e20f                             LSR.B     #1,D7
00001368   40c6                             MOVE      SR,D6
0000136A   4ed1                             JMP       (A1)
0000136C   0804 0008                        BTST      #8,D4
00001370   40c6                             MOVE      SR,D6
00001372   4ed1                             JMP       (A1)
00001374   0804 0000                        BTST      #0,D4
00001378   40c6                             MOVE      SR,D6

Bird Computer dasm68 dissassembler    version 1.0   Sat Jan 27 18:34:32 2024     Page 37

0000137A   4ed1                             JMP       (A1)
0000137C   0803 0008                        BTST      #8,D3
00001380   40c6                             MOVE      SR,D6
00001382   4ed1                             JMP       (A1)
00001384   0803 0000                        BTST      #0,D3
00001388   40c6                             MOVE      SR,D6
0000138A   4ed1                             JMP       (A1)
0000138C   0805 0008                        BTST      #8,D5
00001390   40c6                             MOVE      SR,D6
00001392   4ed1                             JMP       (A1)
00001394   0805 0000                        BTST      #0,D5
00001398   40c6                             MOVE      SR,D6
0000139A   4ed1                             JMP       (A1)
0000139C   0835 0000 0800                   BTST      #0,(D_00,A5,D0.L)
000013A2   40c6                             MOVE      SR,D6
000013A4   4ed1                             JMP       (A1)
000013A6   0807 0000                        BTST      #0,D7
000013AA   40c6                             MOVE      SR,D6
000013AC   4ed1                             JMP       (A1)
000013AE   0804 0009                        BTST      #9,D4
000013B2   40c6                             MOVE      SR,D6
000013B4   4ed1                             JMP       (A1)
000013B6   0804 0001                        BTST      #1,D4
000013BA   40c6                             MOVE      SR,D6
000013BC   4ed1                             JMP       (A1)
000013BE   0803 0009                        BTST      #9,D3
000013C2   40c6                             MOVE      SR,D6
000013C4   4ed1                             JMP       (A1)
000013C6   0803 0001                        BTST      #1,D3
000013CA   40c6                             MOVE      SR,D6
000013CC   4ed1                             JMP       (A1)
000013CE   0805 0009                        BTST      #9,D5
000013D2   40c6                             MOVE      SR,D6
000013D4   4ed1                             JMP       (A1)
000013D6   0805 0001                        BTST      #1,D5
000013DA   40c6                             MOVE      SR,D6
000013DC   4ed1                             JMP       (A1)
000013DE   0835 0001 0800                   BTST      #1,(D_00,A5,D0.L)
000013E4   40c6                             MOVE      SR,D6
000013E6   4ed1                             JMP       (A1)
000013E8   0807 0001                        BTST      #1,D7
000013EC   40c6                             MOVE      SR,D6
000013EE   4ed1                             JMP       (A1)
000013F0   0804 000a                        BTST      #10,D4
000013F4   40c6                             MOVE      SR,D6
000013F6   4ed1                             JMP       (A1)
000013F8   0804 0002                        BTST      #2,D4
000013FC   40c6                             MOVE      SR,D6
000013FE   4ed1                             JMP       (A1)
00001400   0803 000a                        BTST      #10,D3
00001404   40c6                             MOVE      SR,D6
00001406   4ed1                             JMP       (A1)
00001408   0803 0002                        BTST      #2,D3
0000140C   40c6                             MOVE      SR,D6
0000140E   4ed1                             JMP       (A1)
00001410   0805 000a                        BTST      #10,D5
00001414   40c6                             MOVE      SR,D6
00001416   4ed1                             JMP       (A1)

Bird Computer dasm68 dissassembler    version 1.0   Sat Jan 27 18:34:32 2024     Page 38

00001418   0805 0002                        BTST      #2,D5
0000141C   40c6                             MOVE      SR,D6
0000141E   4ed1                             JMP       (A1)
00001420   0835 0002 0800                   BTST      #2,(D_00,A5,D0.L)
00001426   40c6                             MOVE      SR,D6
00001428   4ed1                             JMP       (A1)
0000142A   0807 0002                        BTST      #2,D7
0000142E   40c6                             MOVE      SR,D6
00001430   4ed1                             JMP       (A1)
00001432   0804 000b                        BTST      #11,D4
00001436   40c6                             MOVE      SR,D6
00001438   4ed1                             JMP       (A1)
0000143A   0804 0003                        BTST      #3,D4
0000143E   40c6                             MOVE      SR,D6
00001440   4ed1                             JMP       (A1)
00001442   0803 000b                        BTST      #11,D3
00001446   40c6                             MOVE      SR,D6
00001448   4ed1                             JMP       (A1)
0000144A   0803 0003                        BTST      #3,D3
0000144E   40c6                             MOVE      SR,D6
00001450   4ed1                             JMP       (A1)
00001452   0805 000b                        BTST      #11,D5
00001456   40c6                             MOVE      SR,D6
00001458   4ed1                             JMP       (A1)
0000145A   0805 0003                        BTST      #3,D5
0000145E   40c6                             MOVE      SR,D6
00001460   4ed1                             JMP       (A1)
00001462   0835 0003 0800                   BTST      #3,(D_00,A5,D0.L)
00001468   40c6                             MOVE      SR,D6
0000146A   4ed1                             JMP       (A1)
0000146C   0807 0003                        BTST      #3,D7
00001470   40c6                             MOVE      SR,D6
00001472   4ed1                             JMP       (A1)
00001474   0804 000c                        BTST      #12,D4
00001478   40c6                             MOVE      SR,D6
0000147A   4ed1                             JMP       (A1)
0000147C   0804 0004                        BTST      #4,D4
00001480   40c6                             MOVE      SR,D6
00001482   4ed1                             JMP       (A1)
00001484   0803 000c                        BTST      #12,D3
00001488   40c6                             MOVE      SR,D6
0000148A   4ed1                             JMP       (A1)
0000148C   0803 0004                        BTST      #4,D3
00001490   40c6                             MOVE      SR,D6
00001492   4ed1                             JMP       (A1)
00001494   0805 000c                        BTST      #12,D5
00001498   40c6                             MOVE      SR,D6
0000149A   4ed1                             JMP       (A1)
0000149C   0805 0004                        BTST      #4,D5
000014A0   40c6                             MOVE      SR,D6
000014A2   4ed1                             JMP       (A1)
000014A4   0835 0004 0800                   BTST      #4,(D_00,A5,D0.L)
000014AA   40c6                             MOVE      SR,D6
000014AC   4ed1                             JMP       (A1)
000014AE   0807 0004                        BTST      #4,D7
000014B2   40c6                             MOVE      SR,D6
000014B4   4ed1                             JMP       (A1)
000014B6   0804 000d                        BTST      #13,D4

Bird Computer dasm68 dissassembler    version 1.0   Sat Jan 27 18:34:32 2024     Page 39

000014BA   40c6                             MOVE      SR,D6
000014BC   4ed1                             JMP       (A1)
000014BE   0804 0005                        BTST      #5,D4
000014C2   40c6                             MOVE      SR,D6
000014C4   4ed1                             JMP       (A1)
000014C6   0803 000d                        BTST      #13,D3
000014CA   40c6                             MOVE      SR,D6
000014CC   4ed1                             JMP       (A1)
000014CE   0803 0005                        BTST      #5,D3
000014D2   40c6                             MOVE      SR,D6
000014D4   4ed1                             JMP       (A1)
000014D6   0805 000d                        BTST      #13,D5
000014DA   40c6                             MOVE      SR,D6
000014DC   4ed1                             JMP       (A1)
000014DE   0805 0005                        BTST      #5,D5
000014E2   40c6                             MOVE      SR,D6
000014E4   4ed1                             JMP       (A1)
000014E6   0835 0005 0800                   BTST      #5,(D_00,A5,D0.L)
000014EC   40c6                             MOVE      SR,D6
000014EE   4ed1                             JMP       (A1)
000014F0   0807 0005                        BTST      #5,D7
000014F4   40c6                             MOVE      SR,D6
000014F6   4ed1                             JMP       (A1)
000014F8   0804 000e                        BTST      #14,D4
000014FC   40c6                             MOVE      SR,D6
000014FE   4ed1                             JMP       (A1)
00001500   0804 0006                        BTST      #6,D4
00001504   40c6                             MOVE      SR,D6
00001506   4ed1                             JMP       (A1)
00001508   0803 000e                        BTST      #14,D3
0000150C   40c6                             MOVE      SR,D6
0000150E   4ed1                             JMP       (A1)
00001510   0803 0006                        BTST      #6,D3
00001514   40c6                             MOVE      SR,D6
00001516   4ed1                             JMP       (A1)
00001518   0805 000e                        BTST      #14,D5
0000151C   40c6                             MOVE      SR,D6
0000151E   4ed1                             JMP       (A1)
00001520   0805 0006                        BTST      #6,D5
00001524   40c6                             MOVE      SR,D6
00001526   4ed1                             JMP       (A1)
00001528   0835 0006 0800                   BTST      #6,(D_00,A5,D0.L)
0000152E   40c6                             MOVE      SR,D6
00001530   4ed1                             JMP       (A1)
00001532   0807 0006                        BTST      #6,D7
00001536   40c6                             MOVE      SR,D6
00001538   4ed1                             JMP       (A1)
0000153A   0804 000f                        BTST      #15,D4
0000153E   40c6                             MOVE      SR,D6
00001540   4ed1                             JMP       (A1)
00001542   0804 0007                        BTST      #7,D4
00001546   40c6                             MOVE      SR,D6
00001548   4ed1                             JMP       (A1)
0000154A   0803 000f                        BTST      #15,D3
0000154E   40c6                             MOVE      SR,D6
00001550   4ed1                             JMP       (A1)
00001552   0803 0007                        BTST      #7,D3
00001556   40c6                             MOVE      SR,D6

Bird Computer dasm68 dissassembler    version 1.0   Sat Jan 27 18:34:32 2024     Page 40

00001558   4ed1                             JMP       (A1)
0000155A   0805 000f                        BTST      #15,D5
0000155E   40c6                             MOVE      SR,D6
00001560   4ed1                             JMP       (A1)
00001562   0805 0007                        BTST      #7,D5
00001566   40c6                             MOVE      SR,D6
00001568   4ed1                             JMP       (A1)
0000156A   0835 0007 0800                   BTST      #7,(D_00,A5,D0.L)
00001570   40c6                             MOVE      SR,D6
00001572   4ed1                             JMP       (A1)
00001574   0807 0007                        BTST      #7,D7
00001578   40c6                             MOVE      SR,D6
0000157A   4ed1                             JMP       (A1)
0000157C   0884 0008                        BCLR      #8,D4
00001580   4ed1                             JMP       (A1)
00001582   0884 0000                        BCLR      #0,D4
00001586   4ed1                             JMP       (A1)
00001588   0883 0008                        BCLR      #8,D3
0000158C   4ed1                             JMP       (A1)
0000158E   0883 0000                        BCLR      #0,D3
00001592   4ed1                             JMP       (A1)
00001594   0885 0008                        BCLR      #8,D5
00001598   4ed1                             JMP       (A1)
0000159A   0885 0000                        BCLR      #0,D5
0000159E   4ed1                             JMP       (A1)
000015A0   08b5 0000 0800                   BCLR      #0,(D_00,A5,D0.L)
000015A6   4ed1                             JMP       (A1)
000015A8   0887 0000                        BCLR      #0,D7
000015AC   4ed1                             JMP       (A1)
000015AE   0884 0009                        BCLR      #9,D4
000015B2   4ed1                             JMP       (A1)
000015B4   0884 0001                        BCLR      #1,D4
000015B8   4ed1                             JMP       (A1)
000015BA   0883 0009                        BCLR      #9,D3
000015BE   4ed1                             JMP       (A1)
000015C0   0883 0001                        BCLR      #1,D3
000015C4   4ed1                             JMP       (A1)
000015C6   0885 0009                        BCLR      #9,D5
000015CA   4ed1                             JMP       (A1)
000015CC   0885 0001                        BCLR      #1,D5
000015D0   4ed1                             JMP       (A1)
000015D2   08b5 0001 0800                   BCLR      #1,(D_00,A5,D0.L)
000015D8   4ed1                             JMP       (A1)
000015DA   0887 0001                        BCLR      #1,D7
000015DE   4ed1                             JMP       (A1)
000015E0   0884 000a                        BCLR      #10,D4
000015E4   4ed1                             JMP       (A1)
000015E6   0884 0002                        BCLR      #2,D4
000015EA   4ed1                             JMP       (A1)
000015EC   0883 000a                        BCLR      #10,D3
000015F0   4ed1                             JMP       (A1)
000015F2   0883 0002                        BCLR      #2,D3
000015F6   4ed1                             JMP       (A1)
000015F8   0885 000a                        BCLR      #10,D5
000015FC   4ed1                             JMP       (A1)
000015FE   0885 0002                        BCLR      #2,D5
00001602   4ed1                             JMP       (A1)
00001604   08b5 0002 0800                   BCLR      #2,(D_00,A5,D0.L)

Bird Computer dasm68 dissassembler    version 1.0   Sat Jan 27 18:34:32 2024     Page 41

0000160A   4ed1                             JMP       (A1)
0000160C   0887 0002                        BCLR      #2,D7
00001610   4ed1                             JMP       (A1)
00001612   0884 000b                        BCLR      #11,D4
00001616   4ed1                             JMP       (A1)
00001618   0884 0003                        BCLR      #3,D4
0000161C   4ed1                             JMP       (A1)
0000161E   0883 000b                        BCLR      #11,D3
00001622   4ed1                             JMP       (A1)
00001624   0883 0003                        BCLR      #3,D3
00001628   4ed1                             JMP       (A1)
0000162A   0885 000b                        BCLR      #11,D5
0000162E   4ed1                             JMP       (A1)
00001630   0885 0003                        BCLR      #3,D5
00001634   4ed1                             JMP       (A1)
00001636   08b5 0003 0800                   BCLR      #3,(D_00,A5,D0.L)
0000163C   4ed1                             JMP       (A1)
0000163E   0887 0003                        BCLR      #3,D7
00001642   4ed1                             JMP       (A1)
00001644   0884 000c                        BCLR      #12,D4
00001648   4ed1                             JMP       (A1)
0000164A   0884 0004                        BCLR      #4,D4
0000164E   4ed1                             JMP       (A1)
00001650   0883 000c                        BCLR      #12,D3
00001654   4ed1                             JMP       (A1)
00001656   0883 0004                        BCLR      #4,D3
0000165A   4ed1                             JMP       (A1)
0000165C   0885 000c                        BCLR      #12,D5
00001660   4ed1                             JMP       (A1)
00001662   0885 0004                        BCLR      #4,D5
00001666   4ed1                             JMP       (A1)
00001668   08b5 0004 0800                   BCLR      #4,(D_00,A5,D0.L)
0000166E   4ed1                             JMP       (A1)
00001670   0887 0004                        BCLR      #4,D7
00001674   4ed1                             JMP       (A1)
00001676   0884 000d                        BCLR      #13,D4
0000167A   4ed1                             JMP       (A1)
0000167C   0884 0005                        BCLR      #5,D4
00001680   4ed1                             JMP       (A1)
00001682   0883 000d                        BCLR      #13,D3
00001686   4ed1                             JMP       (A1)
00001688   0883 0005                        BCLR      #5,D3
0000168C   4ed1                             JMP       (A1)
0000168E   0885 000d                        BCLR      #13,D5
00001692   4ed1                             JMP       (A1)
00001694   0885 0005                        BCLR      #5,D5
00001698   4ed1                             JMP       (A1)
0000169A   08b5 0005 0800                   BCLR      #5,(D_00,A5,D0.L)
000016A0   4ed1                             JMP       (A1)
000016A2   0887 0005                        BCLR      #5,D7
000016A6   4ed1                             JMP       (A1)
000016A8   0884 000e                        BCLR      #14,D4
000016AC   4ed1                             JMP       (A1)
000016AE   0884 0006                        BCLR      #6,D4
000016B2   4ed1                             JMP       (A1)
000016B4   0883 000e                        BCLR      #14,D3
000016B8   4ed1                             JMP       (A1)
000016BA   0883 0006                        BCLR      #6,D3

Bird Computer dasm68 dissassembler    version 1.0   Sat Jan 27 18:34:32 2024     Page 42

000016BE   4ed1                             JMP       (A1)
000016C0   0885 000e                        BCLR      #14,D5
000016C4   4ed1                             JMP       (A1)
000016C6   0885 0006                        BCLR      #6,D5
000016CA   4ed1                             JMP       (A1)
000016CC   08b5 0006 0800                   BCLR      #6,(D_00,A5,D0.L)
000016D2   4ed1                             JMP       (A1)
000016D4   0887 0006                        BCLR      #6,D7
000016D8   4ed1                             JMP       (A1)
000016DA   0884 000f                        BCLR      #15,D4
000016DE   4ed1                             JMP       (A1)
000016E0   0884 0007                        BCLR      #7,D4
000016E4   4ed1                             JMP       (A1)
000016E6   0883 000f                        BCLR      #15,D3
000016EA   4ed1                             JMP       (A1)
000016EC   0883 0007                        BCLR      #7,D3
000016F0   4ed1                             JMP       (A1)
000016F2   0885 000f                        BCLR      #15,D5
000016F6   4ed1                             JMP       (A1)
000016F8   0885 0007                        BCLR      #7,D5
000016FC   4ed1                             JMP       (A1)
000016FE   08b5 0007 0800                   BCLR      #7,(D_00,A5,D0.L)
00001704   4ed1                             JMP       (A1)
00001706   0887 0007                        BCLR      #7,D7
0000170A   4ed1                             JMP       (A1)
0000170C   08c4 0008                        BSET      #8,D4
00001710   4ed1                             JMP       (A1)
00001712   08c4 0000                        BSET      #0,D4
00001716   4ed1                             JMP       (A1)
00001718   08c3 0008                        BSET      #8,D3
0000171C   4ed1                             JMP       (A1)
0000171E   08c3 0000                        BSET      #0,D3
00001722   4ed1                             JMP       (A1)
00001724   08c5 0008                        BSET      #8,D5
00001728   4ed1                             JMP       (A1)
0000172A   08c5 0000                        BSET      #0,D5
0000172E   4ed1                             JMP       (A1)
00001730   08f5 0000 0800                   BSET      #0,(D_00,A5,D0.L)
00001736   4ed1                             JMP       (A1)
00001738   08c7 0000                        BSET      #0,D7
0000173C   4ed1                             JMP       (A1)
0000173E   08c4 0009                        BSET      #9,D4
00001742   4ed1                             JMP       (A1)
00001744   08c4 0001                        BSET      #1,D4
00001748   4ed1                             JMP       (A1)
0000174A   08c3 0009                        BSET      #9,D3
0000174E   4ed1                             JMP       (A1)
00001750   08c3 0001                        BSET      #1,D3
00001754   4ed1                             JMP       (A1)
00001756   08c5 0009                        BSET      #9,D5
0000175A   4ed1                             JMP       (A1)
0000175C   08c5 0001                        BSET      #1,D5
00001760   4ed1                             JMP       (A1)
00001762   08f5 0001 0800                   BSET      #1,(D_00,A5,D0.L)
00001768   4ed1                             JMP       (A1)
0000176A   08c7 0001                        BSET      #1,D7
0000176E   4ed1                             JMP       (A1)
00001770   08c4 000a                        BSET      #10,D4

Bird Computer dasm68 dissassembler    version 1.0   Sat Jan 27 18:34:32 2024     Page 43

00001774   4ed1                             JMP       (A1)
00001776   08c4 0002                        BSET      #2,D4
0000177A   4ed1                             JMP       (A1)
0000177C   08c3 000a                        BSET      #10,D3
00001780   4ed1                             JMP       (A1)
00001782   08c3 0002                        BSET      #2,D3
00001786   4ed1                             JMP       (A1)
00001788   08c5 000a                        BSET      #10,D5
0000178C   4ed1                             JMP       (A1)
0000178E   08c5 0002                        BSET      #2,D5
00001792   4ed1                             JMP       (A1)
00001794   08f5 0002 0800                   BSET      #2,(D_00,A5,D0.L)
0000179A   4ed1                             JMP       (A1)
0000179C   08c7 0002                        BSET      #2,D7
000017A0   4ed1                             JMP       (A1)
000017A2   08c4 000b                        BSET      #11,D4
000017A6   4ed1                             JMP       (A1)
000017A8   08c4 0003                        BSET      #3,D4
000017AC   4ed1                             JMP       (A1)
000017AE   08c3 000b                        BSET      #11,D3
000017B2   4ed1                             JMP       (A1)
000017B4   08c3 0003                        BSET      #3,D3
000017B8   4ed1                             JMP       (A1)
000017BA   08c5 000b                        BSET      #11,D5
000017BE   4ed1                             JMP       (A1)
000017C0   08c5 0003                        BSET      #3,D5
000017C4   4ed1                             JMP       (A1)
000017C6   08f5 0003 0800                   BSET      #3,(D_00,A5,D0.L)
000017CC   4ed1                             JMP       (A1)
000017CE   08c7 0003                        BSET      #3,D7
000017D2   4ed1                             JMP       (A1)
000017D4   08c4 000c                        BSET      #12,D4
000017D8   4ed1                             JMP       (A1)
000017DA   08c4 0004                        BSET      #4,D4
000017DE   4ed1                             JMP       (A1)
000017E0   08c3 000c                        BSET      #12,D3
000017E4   4ed1                             JMP       (A1)
000017E6   08c3 0004                        BSET      #4,D3
000017EA   4ed1                             JMP       (A1)
000017EC   08c5 000c                        BSET      #12,D5
000017F0   4ed1                             JMP       (A1)
000017F2   08c5 0004                        BSET      #4,D5
000017F6   4ed1                             JMP       (A1)
000017F8   08f5 0004 0800                   BSET      #4,(D_00,A5,D0.L)
000017FE   4ed1                             JMP       (A1)
00001800   08c7 0004                        BSET      #4,D7
00001804   4ed1                             JMP       (A1)
00001806   08c4 000d                        BSET      #13,D4
0000180A   4ed1                             JMP       (A1)
0000180C   08c4 0005                        BSET      #5,D4
00001810   4ed1                             JMP       (A1)
00001812   08c3 000d                        BSET      #13,D3
00001816   4ed1                             JMP       (A1)
00001818   08c3 0005                        BSET      #5,D3
0000181C   4ed1                             JMP       (A1)
0000181E   08c5 000d                        BSET      #13,D5
00001822   4ed1                             JMP       (A1)
00001824   08c5 0005                        BSET      #5,D5

Bird Computer dasm68 dissassembler    version 1.0   Sat Jan 27 18:34:32 2024     Page 44

00001828   4ed1                             JMP       (A1)
0000182A   08f5 0005 0800                   BSET      #5,(D_00,A5,D0.L)
00001830   4ed1                             JMP       (A1)
00001832   08c7 0005                        BSET      #5,D7
00001836   4ed1                             JMP       (A1)
00001838   08c4 000e                        BSET      #14,D4
0000183C   4ed1                             JMP       (A1)
0000183E   08c4 0006                        BSET      #6,D4
00001842   4ed1                             JMP       (A1)
00001844   08c3 000e                        BSET      #14,D3
00001848   4ed1                             JMP       (A1)
0000184A   08c3 0006                        BSET      #6,D3
0000184E   4ed1                             JMP       (A1)
00001850   08c5 000e                        BSET      #14,D5
00001854   4ed1                             JMP       (A1)
00001856   08c5 0006                        BSET      #6,D5
0000185A   4ed1                             JMP       (A1)
0000185C   08f5 0006 0800                   BSET      #6,(D_00,A5,D0.L)
00001862   4ed1                             JMP       (A1)
00001864   08c7 0006                        BSET      #6,D7
00001868   4ed1                             JMP       (A1)
0000186A   08c4 000f                        BSET      #15,D4
0000186E   4ed1                             JMP       (A1)
00001870   08c4 0007                        BSET      #7,D4
00001874   4ed1                             JMP       (A1)
00001876   08c3 000f                        BSET      #15,D3
0000187A   4ed1                             JMP       (A1)
0000187C   08c3 0007                        BSET      #7,D3
00001880   4ed1                             JMP       (A1)
00001882   08c5 000f                        BSET      #15,D5
00001886   4ed1                             JMP       (A1)
00001888   08c5 0007                        BSET      #7,D5
0000188C   4ed1                             JMP       (A1)
0000188E   08f5 0007 0800                   BSET      #7,(D_00,A5,D0.L)
00001894   4ed1                             JMP       (A1)
00001896   08c7 0007                        BSET      #7,D7
0000189A   4ed1                             JMP       (A1)
0000189C   48e7 f0c0                        MOVEM     REGS D0-3A01,-(A7)
000018A0   43fa 00cc                        LEA       (D_00cc,PC),A1
000018A4   7007                             MOVEQ     #0x7,D0
000018A6   3419                             MOVE.W    (A1)+,D2
000018A8   206c 0014                        MOVE      (D_0014,A4),A0
000018AC   4e43                             TRAP      #3
000018AE   4cdf 030f                        MOVEM     (A7)+,REGS D0-3A01
000018B2   610c                             BSR.S     B_18c0
000018B4   7001                             MOVEQ     #0x1,D0
000018B6   4281                             CLR       D1
000018B8   4ead f000                        JSR       (D_f000,A5)
000018BC   2c4d                             MOVE      A5,A6
000018BE   4ed1                             JMP       (A1)
000018C0   48e7 1f7e                        MOVEM     REGS D3-7A1-6,-(A7)
000018C4   538e                             SUBQ      #1,A6
000018C6   206c 0014                        MOVE      (D_0014,A4),A0
000018CA   43fa 00bc                        LEA       (D_00bc,PC),A1
000018CE   3419                             MOVE.W    (A1)+,D2
000018D0   7007                             MOVEQ     #0x7,D0
000018D2   4e43                             TRAP      #3
000018D4   200e                             MOVE      A6,D0

Bird Computer dasm68 dissassembler    version 1.0   Sat Jan 27 18:34:32 2024     Page 45

000018D6   908d                             SUB       A5,D0
000018D8   6156                             BSR.S     B_1930
000018DA   18ae 0000                        MOVE.B    (D_0000,A6),(A4)
000018DE   3014                             MOVE.W    (A4),D0
000018E0   102e 0001                        MOVE.B    (D_0001,A6),D0
000018E4   614a                             BSR.S     B_1930
000018E6   200b                             MOVE      A3,D0
000018E8   908d                             SUB       A5,D0
000018EA   6144                             BSR.S     B_1930
000018EC   1887                             MOVE.B    D7,(A4)
000018EE   3014                             MOVE.W    (A4),D0
000018F0   1006                             MOVE.B    D6,D0
000018F2   613c                             BSR.S     B_1930
000018F4   3004                             MOVE.W    D4,D0
000018F6   6138                             BSR.S     B_1930
000018F8   3003                             MOVE.W    D3,D0
000018FA   6134                             BSR.S     B_1930
000018FC   3005                             MOVE.W    D5,D0
000018FE   6130                             BSR.S     B_1930
00001900   302c 0008                        MOVE.W    (D_0008,A4),D0
00001904   612a                             BSR.S     B_1930
00001906   302c 000a                        MOVE.W    (D_000a,A4),D0
0000190A   6124                             BSR.S     B_1930
0000190C   302c 0012                        MOVE.W    (D_0012,A4),D0
00001910   611e                             BSR.S     B_1930
00001912   302c 000c                        MOVE.W    (D_000c,A4),D0
00001916   6118                             BSR.S     B_1930
00001918   302c 000e                        MOVE.W    (D_000e,A4),D0
0000191C   6112                             BSR.S     B_1930
0000191E   302c 0010                        MOVE.W    (D_0010,A4),D0
00001922   610c                             BSR.S     B_1930
00001924   7005                             MOVEQ     #0x5,D0
00001926   720a                             MOVEQ     #0xa,D1
00001928   4e43                             TRAP      #3
0000192A   4cdf 7ef8                        MOVEM     (A7)+,REGS D3-7A1-6
0000192E   4e75                             RTS
00001930   7401                             MOVEQ     #0x1,D2
00001932   3880                             MOVE.W    D0,(A4)
00001934   244c                             MOVE      A4,A2
00001936   4241                             CLR.W     D1
00001938   1212                             MOVE.B    (A2),D1
0000193A   e809                             LSR.B     #4,D1
0000193C   6110                             BSR.S     B_194e
0000193E   121a                             MOVE.B    (A2)+,D1
00001940   610c                             BSR.S     B_194e
00001942   51ca fff2                        DBF       D2,B_11936
00001946   7005                             MOVEQ     #0x5,D0
00001948   7220                             MOVEQ     #0x20,D1
0000194A   4e43                             TRAP      #3
0000194C   4e75                             RTS
0000194E   0201 000f                        AND.B     #0xf,D1
00001952   0601 0030                        ADD.B     #0x30,D1
00001956   0c01 0039                        CMP.B     #0x39,D1
0000195A   6302                             BLS       B_195e
0000195C   5e41                             ADDQ.W    #7,D1
0000195E   48e7 f070                        MOVEM     REGS D0-3A1-3,-(A7)
00001962   7005                             MOVEQ     #0x5,D0
00001964   76ff                             MOVEQ     #0xff,D3

Bird Computer dasm68 dissassembler    version 1.0   Sat Jan 27 18:34:32 2024     Page 46

00001966   4e43                             TRAP      #3
00001968   4cdf 0e0f                        MOVEM     (A7)+,REGS D0-3A1-3
0000196C   4e75                             RTS
0000196E   0018 0a4f                        OR.B      #0xa4f,(A0)+
00001972   5043                             ADDQ.W    #8,D3
00001974   4f44                             DATA.W    0x4f44  ; Unrecognized
00001976   4520                             DATA.W    0x4520  ; Unrecognized
00001978   4e4f                             TRAP      #15
0000197A   5420                             ADDQ.B    #2,-(A0)
0000197C   494d                             DATA.W    0x494d  ; Unrecognized
0000197E   504c                             ADDQ.W    #8,A4
00001980   454d                             DATA.W    0x454d  ; Unrecognized
00001982   454e                             DATA.W    0x454e  ; Unrecognized
00001984   5445                             ADDQ.W    #2,D5
00001986   440a                             NEG.B     A2
00001988   0042 2050                        OR.W      #0x2050,D2
0000198C   4320                             DATA.W    0x4320  ; Unrecognized
0000198E   2020                             MOVE      -(A0),D0
00001990   4f50                             DATA.W    0x4f50  ; Unrecognized
00001992   2020                             MOVE      -(A0),D0
00001994   2053                             MOVE      (A3),A0
00001996   5020                             ADDQ.B    #8,-(A0)
00001998   2020                             MOVE      -(A0),D0
0000199A   4146                             DATA.W    0x4146  ; Unrecognized
0000199C   2020                             MOVE      -(A0),D0
0000199E   2042                             MOVE      D2,A0
000019A0   4320                             DATA.W    0x4320  ; Unrecognized
000019A2   2020                             MOVE      -(A0),D0
000019A4   4445                             NEG.W     D5
000019A6   2020                             MOVE      -(A0),D0
000019A8   2048                             MOVE      A0,A0
000019AA   4c20                             DATA.W    0x4c20  ; Unrecognized
000019AC   2020                             MOVE      -(A0),D0
000019AE   4958                             DATA.W    0x4958  ; Unrecognized
000019B0   2020                             MOVE      -(A0),D0
000019B2   2049                             MOVE      A1,A0
000019B4   5920                             SUBQ.B    #4,-(A0)
000019B6   2041                             MOVE      D1,A0
000019B8   2746 2720                        MOVE      D6,(D_2720,A3)
000019BC   4227                             CLR.B     -(A7)
000019BE   4327                             DATA.W    0x4327  ; Unrecognized
000019C0   2044                             MOVE      D4,A0
000019C2   2745 2720                        MOVE      D5,(D_2720,A3)
000019C6   4827                             NBCD      -(A7)
000019C8   4c27                             DATA.W    0x4c27  ; Unrecognized
000019CA   200a                             MOVE      A2,D0
000019CC   0001 0405                        OR.B      #0x405,D1
000019D0   4041                             NEGX.W    D1
000019D2   4445                             NEG.W     D5
000019D4   8081                             OR        D1,D0
000019D6   8485                             OR        D5,D2
000019D8   c0c1                             MULU      D1,D0
000019DA   c4c5                             MULU      D5,D2
000019DC   01fe                             BSET      D0,????
000019DE   0600 0002                        ADD.B     #0x2,D0
000019E2   0002 0200                        OR.B      #0x200,D2
000019E6   0002 0200                        OR.B      #0x200,D2
000019EA   0200 0002                        AND.B     #0x2,D0

Bird Computer dasm68 dissassembler    version 1.0   Sat Jan 27 18:34:32 2024     Page 47

000019EE   0002 0200                        OR.B      #0x200,D2
000019F2   0200 0002                        AND.B     #0x2,D0
000019F6   0200 0002                        AND.B     #0x2,D0
000019FA   0002 0200                        OR.B      #0x200,D2
000019FE   0002 0200                        OR.B      #0x200,D2
00001A02   0200 0002                        AND.B     #0x2,D0
00001A06   0200 0002                        AND.B     #0x2,D0
00001A0A   0002 0200                        OR.B      #0x200,D2
00001A0E   0200 0002                        AND.B     #0x2,D0
00001A12   0002 0200                        OR.B      #0x200,D2
00001A16   0002 0200                        OR.B      #0x200,D2
00001A1A   0200 0002                        AND.B     #0x2,D0
00001A1E   0002 0200                        OR.B      #0x200,D2
00001A22   0200 0002                        AND.B     #0x2,D0
00001A26   0200 0002                        AND.B     #0x2,D0
00001A2A   0002 0200                        OR.B      #0x200,D2
00001A2E   0200 0002                        AND.B     #0x2,D0
00001A32   0002 0200                        OR.B      #0x200,D2
00001A36   0002 0200                        OR.B      #0x200,D2
00001A3A   0200 0002                        AND.B     #0x2,D0
00001A3E   0200 0002                        AND.B     #0x2,D0
00001A42   0002 0200                        OR.B      #0x200,D2
00001A46   0002 0200                        OR.B      #0x200,D2
00001A4A   0200 0002                        AND.B     #0x2,D0
00001A4E   0002 0200                        OR.B      #0x200,D2
00001A52   0200 0002                        AND.B     #0x2,D0
00001A56   0200 0002                        AND.B     #0x2,D0
00001A5A   0002 0200                        OR.B      #0x200,D2
00001A5E   080a 0a08                        BTST      #2568,A2
00001A62   0a08 080a                        EOR.B     #0x80a,A0
00001A66   0a08 080a                        EOR.B     #0x80a,A0
00001A6A   080a 0a08                        BTST      #2568,A2
00001A6E   0a08 080a                        EOR.B     #0x80a,A0
00001A72   080a 0a08                        BTST      #2568,A2
00001A76   080a 0a08                        BTST      #2568,A2
00001A7A   0a08 080a                        EOR.B     #0x80a,A0
00001A7E   0a08 080a                        EOR.B     #0x80a,A0
00001A82   080a 0a08                        BTST      #2568,A2
00001A86   080a 0a08                        BTST      #2568,A2
00001A8A   0a08 080a                        EOR.B     #0x80a,A0
00001A8E   080a 0a08                        BTST      #2568,A2
00001A92   0a08 080a                        EOR.B     #0x80a,A0
00001A96   0a08 080a                        EOR.B     #0x80a,A0
00001A9A   080a 0a08                        BTST      #2568,A2
00001A9E   0a08 080a                        EOR.B     #0x80a,A0
00001AA2   080a 0a08                        BTST      #2568,A2
00001AA6   080a 0a08                        BTST      #2568,A2
00001AAA   0a08 080a                        EOR.B     #0x80a,A0
00001AAE   080a 0a08                        BTST      #2568,A2
00001AB2   0a08 080a                        EOR.B     #0x80a,A0
00001AB6   0a08 080a                        EOR.B     #0x80a,A0
00001ABA   080a 0a08                        BTST      #2568,A2
00001ABE   080a 0a08                        BTST      #2568,A2
00001AC2   0a08 080a                        EOR.B     #0x80a,A0
00001AC6   0a08 080a                        EOR.B     #0x80a,A0
00001ACA   080a 0a08                        BTST      #2568,A2
00001ACE   0a08 080a                        EOR.B     #0x80a,A0
00001AD2   080a 0a08                        BTST      #2568,A2

Bird Computer dasm68 dissassembler    version 1.0   Sat Jan 27 18:34:32 2024     Page 48

00001AD6   080a 0a08                        BTST      #2568,A2
00001ADA   0a08 080a                        EOR.B     #0x80a,A0
00001ADE   f5ee                             DATA.W    0xf5ee   ;  'F-line' opcode (unassigned)00001AE0   f5fc                             DATA.W    0xf5fc   ;  'F-line' opcode (unassigned)00001AE2   f602                             DATA.W    0xf602   ;  'F-line' opcode (unassigned)00001AE4   f610                             DATA.W    0xf610   ;  'F-line' opcode (unassigned)00001AE6   f616                             DATA.W    0xf616   ;  'F-line' opcode (unassigned)00001AE8   f624                             DATA.W    0xf624   ;  'F-line' opcode (unassigned)00001AEA   f62a                             DATA.W    0xf62a   ;  'F-line' opcode (unassigned)00001AEC   f638                             DATA.W    0xf638   ;  'F-line' opcode (unassigned)
00001AEE   f63e                             DATA.W    0xf63e   ;  'F-line' opcode (unassigned)00001AF0   f64c                             DATA.W    0xf64c   ;  'F-line' opcode (unassigned)00001AF2   f652                             DATA.W    0xf652   ;  'F-line' opcode (unassigned)00001AF4   f660                             DATA.W    0xf660   ;  'F-line' opcode (unassigned)00001AF6   f666                             DATA.W    0xf666   ;  'F-line' opcode (unassigned)00001AF8   f674                             DATA.W    0xf674   ;  'F-line' opcode (unassigned)00001AFA   f67a                             DATA.W    0xf67a   ;  'F-line' opcode (unassigned)00001AFC   f688                             DATA.W    0xf688   ;  'F-line' opcode (unassigned)
00001AFE   f68e                             DATA.W    0xf68e   ;  'F-line' opcode (unassigned)00001B00   f69e                             DATA.W    0xf69e   ;  'F-line' opcode (unassigned)00001B02   f6a6                             DATA.W    0xf6a6   ;  'F-line' opcode (unassigned)00001B04   f6b6                             DATA.W    0xf6b6   ;  'F-line' opcode (unassigned)00001B06   f6be                             DATA.W    0xf6be   ;  'F-line' opcode (unassigned)00001B08   f6ce                             DATA.W    0xf6ce   ;  'F-line' opcode (unassigned)00001B0A   f6d6                             DATA.W    0xf6d6   ;  'F-line' opcode (unassigned)00001B0C   f6e6                             DATA.W    0xf6e6   ;  'F-line' opcode (unassigned)
00001B0E   f6ee                             DATA.W    0xf6ee   ;  'F-line' opcode (unassigned)00001B10   f6fe                             DATA.W    0xf6fe   ;  'F-line' opcode (unassigned)00001B12   f706                             DATA.W    0xf706   ;  'F-line' opcode (unassigned)00001B14   f716                             DATA.W    0xf716   ;  'F-line' opcode (unassigned)00001B16   f71e                             DATA.W    0xf71e   ;  'F-line' opcode (unassigned)00001B18   f72e                             DATA.W    0xf72e   ;  'F-line' opcode (unassigned)00001B1A   f736                             DATA.W    0xf736   ;  'F-line' opcode (unassigned)00001B1C   f746                             DATA.W    0xf746   ;  'F-line' opcode (unassigned)
00001B1E   f74e                             DATA.W    0xf74e   ;  'F-line' opcode (unassigned)00001B20   f75c                             DATA.W    0xf75c   ;  'F-line' opcode (unassigned)00001B22   f762                             DATA.W    0xf762   ;  'F-line' opcode (unassigned)00001B24   f770                             DATA.W    0xf770   ;  'F-line' opcode (unassigned)00001B26   f776                             DATA.W    0xf776   ;  'F-line' opcode (unassigned)00001B28   f784                             DATA.W    0xf784   ;  'F-line' opcode (unassigned)00001B2A   f78a                             DATA.W    0xf78a   ;  'F-line' opcode (unassigned)00001B2C   f798                             DATA.W    0xf798   ;  'F-line' opcode (unassigned)
00001B2E   f79e                             DATA.W    0xf79e   ;  'F-line' opcode (unassigned)00001B30   f7ac                             DATA.W    0xf7ac   ;  'F-line' opcode (unassigned)00001B32   f7b2                             DATA.W    0xf7b2   ;  'F-line' opcode (unassigned)00001B34   f7c0                             DATA.W    0xf7c0   ;  'F-line' opcode (unassigned)00001B36   f7c6                             DATA.W    0xf7c6   ;  'F-line' opcode (unassigned)00001B38   f7d4                             DATA.W    0xf7d4   ;  'F-line' opcode (unassigned)00001B3A   f7da                             DATA.W    0xf7da   ;  'F-line' opcode (unassigned)00001B3C   f7e8                             DATA.W    0xf7e8   ;  'F-line' opcode (unassigned)
00001B3E   f7ee                             DATA.W    0xf7ee   ;  'F-line' opcode (unassigned)00001B40   f7fc                             DATA.W    0xf7fc   ;  'F-line' opcode (unassigned)00001B42   f802                             DATA.W    0xf802   ;  'F-line' opcode (unassigned)00001B44   f810                             DATA.W    0xf810   ;  'F-line' opcode (unassigned)00001B46   f816                             DATA.W    0xf816   ;  'F-line' opcode (unassigned)00001B48   f824                             DATA.W    0xf824   ;  'F-line' opcode (unassigned)00001B4A   f82a                             DATA.W    0xf82a   ;  'F-line' opcode (unassigned)00001B4C   f838                             DATA.W    0xf838   ;  'F-line' opcode (unassigned)
Bird Computer dasm68 dissassembler    version 1.0   Sat Jan 27 18:34:33 2024     Page 49
00001B4E   f83e                             DATA.W    0xf83e   ;  'F-line' opcode (unassigned)00001B50   f84c                             DATA.W    0xf84c   ;  'F-line' opcode (unassigned)00001B52   f852                             DATA.W    0xf852   ;  'F-line' opcode (unassigned)00001B54   f860                             DATA.W    0xf860   ;  'F-line' opcode (unassigned)00001B56   f866                             DATA.W    0xf866   ;  'F-line' opcode (unassigned)00001B58   f874                             DATA.W    0xf874   ;  'F-line' opcode (unassigned)00001B5A   f87a                             DATA.W    0xf87a   ;  'F-line' opcode (unassigned)00001B5C   f888                             DATA.W    0xf888   ;  'F-line' opcode (unassigned)00001B5E   f88e                             DATA.W    0xf88e   ;  'F-line' opcode (unassigned)00001B60   f896                             DATA.W    0xf896   ;  'F-line' opcode (unassigned)00001B62   f89e                             DATA.W    0xf89e   ;  'F-line' opcode (unassigned)00001B64   f8a6                             DATA.W    0xf8a6   ;  'F-line' opcode (unassigned)00001B66   f8ae                             DATA.W    0xf8ae   ;  'F-line' opcode (unassigned)00001B68   f8b6                             DATA.W    0xf8b6   ;  'F-line' opcode (unassigned)00001B6A   f8be                             DATA.W    0xf8be   ;  'F-line' opcode (unassigned)00001B6C   f8c8                             DATA.W    0xf8c8   ;  'F-line' opcode (unassigned)00001B6E   f8d0                             DATA.W    0xf8d0   ;  'F-line' opcode (unassigned)00001B70   f8d8                             DATA.W    0xf8d8   ;  'F-line' opcode (unassigned)
00001B72   f8e0                             DATA.W    0xf8e0   ;  'F-line' opcode (unassigned)
00001B74   f8e8                             DATA.W    0xf8e8   ;  'F-line' opcode (unassigned)
00001B76   f8f0                             DATA.W    0xf8f0   ;  'F-line' opcode (unassigned)
00001B78   f8f8                             DATA.W    0xf8f8   ;  'F-line' opcode (unassigned)
00001B7A   f900                             DATA.W    0xf900   ;  'F-line' opcode (unassigned)
00001B7C   f90a                             DATA.W    0xf90a   ;  'F-line' opcode (unassigned)
00001B7E   f912                             DATA.W    0xf912   ;  'F-line' opcode (unassigned)
00001B80   f91a                             DATA.W    0xf91a   ;  'F-line' opcode (unassigned)
00001B82   f922                             DATA.W    0xf922   ;  'F-line' opcode (unassigned)
00001B84   f92a                             DATA.W    0xf92a   ;  'F-line' opcode (unassigned)
00001B86   f932                             DATA.W    0xf932   ;  'F-line' opcode (unassigned)
00001B88   f93a                             DATA.W    0xf93a   ;  'F-line' opcode (unassigned)
00001B8A   f942                             DATA.W    0xf942   ;  'F-line' opcode (unassigned)
00001B8C   f94c                             DATA.W    0xf94c   ;  'F-line' opcode (unassigned)
00001B8E   f954                             DATA.W    0xf954   ;  'F-line' opcode (unassigned)
00001B90   f95c                             DATA.W    0xf95c   ;  'F-line' opcode (unassigned)
00001B92   f964                             DATA.W    0xf964   ;  'F-line' opcode (unassigned)
00001B94   f96c                             DATA.W    0xf96c   ;  'F-line' opcode (unassigned)
00001B96   f974                             DATA.W    0xf974   ;  'F-line' opcode (unassigned)
00001B98   f97c                             DATA.W    0xf97c   ;  'F-line' opcode (unassigned)
00001B9A   f984                             DATA.W    0xf984   ;  'F-line' opcode (unassigned)
00001B9C   f98e                             DATA.W    0xf98e   ;  'F-line' opcode (unassigned)
00001B9E   f996                             DATA.W    0xf996   ;  'F-line' opcode (unassigned)
00001BA0   f99e                             DATA.W    0xf99e   ;  'F-line' opcode (unassigned)
00001BA2   f9a6                             DATA.W    0xf9a6   ;  'F-line' opcode (unassigned)
00001BA4   f9ae                             DATA.W    0xf9ae   ;  'F-line' opcode (unassigned)
00001BA6   f9b6                             DATA.W    0xf9b6   ;  'F-line' opcode (unassigned)
00001BA8   f9be                             DATA.W    0xf9be   ;  'F-line' opcode (unassigned)
00001BAA   f9c6                             DATA.W    0xf9c6   ;  'F-line' opcode (unassigned)
00001BAC   f9d0                             DATA.W    0xf9d0   ;  'F-line' opcode (unassigned)
00001BAE   f9d8                             DATA.W    0xf9d8   ;  'F-line' opcode (unassigned)
00001BB0   f9e0                             DATA.W    0xf9e0   ;  'F-line' opcode (unassigned)
00001BB2   f9e8                             DATA.W    0xf9e8   ;  'F-line' opcode (unassigned)
00001BB4   f9f0                             DATA.W    0xf9f0   ;  'F-line' opcode (unassigned)
00001BB6   f9f8                             DATA.W    0xf9f8   ;  'F-line' opcode (unassigned)
00001BB8   fa00                             DATA.W    0xfa00   ;  'F-line' opcode (unassigned)
00001BBA   fa08                             DATA.W    0xfa08   ;  'F-line' opcode (unassigned)
00001BBC   fa12                             DATA.W    0xfa12   ;  'F-line' opcode (unassigned)
00001BBE   fa1a                             DATA.W    0xfa1a   ;  'F-line' opcode (unassigned)
00001BC0   fa22                             DATA.W    0xfa22   ;  'F-line' opcode (unassigned)

Bird Computer dasm68 dissassembler    version 1.0   Sat Jan 27 18:34:33 2024     Page 50

00001BC2   fa2a                             DATA.W    0xfa2a   ;  'F-line' opcode (unassigned)
00001BC4   fa32                             DATA.W    0xfa32   ;  'F-line' opcode (unassigned)
00001BC6   fa3a                             DATA.W    0xfa3a   ;  'F-line' opcode (unassigned)
00001BC8   fa42                             DATA.W    0xfa42   ;  'F-line' opcode (unassigned)
00001BCA   fa4a                             DATA.W    0xfa4a   ;  'F-line' opcode (unassigned)
00001BCC   fa54                             DATA.W    0xfa54   ;  'F-line' opcode (unassigned)
00001BCE   fa5c                             DATA.W    0xfa5c   ;  'F-line' opcode (unassigned)
00001BD0   fa64                             DATA.W    0xfa64   ;  'F-line' opcode (unassigned)
00001BD2   fa6c                             DATA.W    0xfa6c   ;  'F-line' opcode (unassigned)
00001BD4   fa74                             DATA.W    0xfa74   ;  'F-line' opcode (unassigned)
00001BD6   fa7c                             DATA.W    0xfa7c   ;  'F-line' opcode (unassigned)
00001BD8   fa84                             DATA.W    0xfa84   ;  'F-line' opcode (unassigned)
00001BDA   fa8c                             DATA.W    0xfa8c   ;  'F-line' opcode (unassigned)
00001BDC   fa96                             DATA.W    0xfa96   ;  'F-line' opcode (unassigned)
00001BDE   fa9e                             DATA.W    0xfa9e   ;  'F-line' opcode (unassigned)
00001BE0   faa4                             DATA.W    0xfaa4   ;  'F-line' opcode (unassigned)
00001BE2   faaa                             DATA.W    0xfaaa   ;  'F-line' opcode (unassigned)
00001BE4   fab0                             DATA.W    0xfab0   ;  'F-line' opcode (unassigned)
00001BE6   fab6                             DATA.W    0xfab6   ;  'F-line' opcode (unassigned)
00001BE8   fabc                             DATA.W    0xfabc   ;  'F-line' opcode (unassigned)
00001BEA   fac2                             DATA.W    0xfac2   ;  'F-line' opcode (unassigned)
00001BEC   faca                             DATA.W    0xfaca   ;  'F-line' opcode (unassigned)
00001BEE   fad0                             DATA.W    0xfad0   ;  'F-line' opcode (unassigned)
00001BF0   fad6                             DATA.W    0xfad6   ;  'F-line' opcode (unassigned)
00001BF2   fadc                             DATA.W    0xfadc   ;  'F-line' opcode (unassigned)
00001BF4   fae2                             DATA.W    0xfae2   ;  'F-line' opcode (unassigned)
00001BF6   fae8                             DATA.W    0xfae8   ;  'F-line' opcode (unassigned)
00001BF8   faee                             DATA.W    0xfaee   ;  'F-line' opcode (unassigned)
00001BFA   faf4                             DATA.W    0xfaf4   ;  'F-line' opcode (unassigned)
00001BFC   fafc                             DATA.W    0xfafc   ;  'F-line' opcode (unassigned)
00001BFE   fb02                             DATA.W    0xfb02   ;  'F-line' opcode (unassigned)
00001C00   fb08                             DATA.W    0xfb08   ;  'F-line' opcode (unassigned)
00001C02   fb0e                             DATA.W    0xfb0e   ;  'F-line' opcode (unassigned)
00001C04   fb14                             DATA.W    0xfb14   ;  'F-line' opcode (unassigned)
00001C06   fb1a                             DATA.W    0xfb1a   ;  'F-line' opcode (unassigned)
00001C08   fb20                             DATA.W    0xfb20   ;  'F-line' opcode (unassigned)
00001C0A   fb26                             DATA.W    0xfb26   ;  'F-line' opcode (unassigned)
00001C0C   fb2e                             DATA.W    0xfb2e   ;  'F-line' opcode (unassigned)
00001C0E   fb34                             DATA.W    0xfb34   ;  'F-line' opcode (unassigned)
00001C10   fb3a                             DATA.W    0xfb3a   ;  'F-line' opcode (unassigned)
00001C12   fb40                             DATA.W    0xfb40   ;  'F-line' opcode (unassigned)
00001C14   fb46                             DATA.W    0xfb46   ;  'F-line' opcode (unassigned)
00001C16   fb4c                             DATA.W    0xfb4c   ;  'F-line' opcode (unassigned)
00001C18   fb52                             DATA.W    0xfb52   ;  'F-line' opcode (unassigned)
00001C1A   fb58                             DATA.W    0xfb58   ;  'F-line' opcode (unassigned)
00001C1C   fb60                             DATA.W    0xfb60   ;  'F-line' opcode (unassigned)
00001C1E   fb66                             DATA.W    0xfb66   ;  'F-line' opcode (unassigned)
00001C20   fb6c                             DATA.W    0xfb6c   ;  'F-line' opcode (unassigned)
00001C22   fb72                             DATA.W    0xfb72   ;  'F-line' opcode (unassigned)
00001C24   fb78                             DATA.W    0xfb78   ;  'F-line' opcode (unassigned)
00001C26   fb7e                             DATA.W    0xfb7e   ;  'F-line' opcode (unassigned)
00001C28   fb84                             DATA.W    0xfb84   ;  'F-line' opcode (unassigned)
00001C2A   fb8a                             DATA.W    0xfb8a   ;  'F-line' opcode (unassigned)
00001C2C   fb92                             DATA.W    0xfb92   ;  'F-line' opcode (unassigned)
00001C2E   fb98                             DATA.W    0xfb98   ;  'F-line' opcode (unassigned)
00001C30   fb9e                             DATA.W    0xfb9e   ;  'F-line' opcode (unassigned)
00001C32   fba4                             DATA.W    0xfba4   ;  'F-line' opcode (unassigned)
00001C34   fbaa                             DATA.W    0xfbaa   ;  'F-line' opcode (unassigned)

Bird Computer dasm68 dissassembler    version 1.0   Sat Jan 27 18:34:33 2024     Page 51

00001C36   fbb0                             DATA.W    0xfbb0   ;  'F-line' opcode (unassigned)
00001C38   fbb6                             DATA.W    0xfbb6   ;  'F-line' opcode (unassigned)
00001C3A   fbbc                             DATA.W    0xfbbc   ;  'F-line' opcode (unassigned)
00001C3C   fbc4                             DATA.W    0xfbc4   ;  'F-line' opcode (unassigned)
00001C3E   fbca                             DATA.W    0xfbca   ;  'F-line' opcode (unassigned)
00001C40   fbd0                             DATA.W    0xfbd0   ;  'F-line' opcode (unassigned)
00001C42   fbd6                             DATA.W    0xfbd6   ;  'F-line' opcode (unassigned)
00001C44   fbdc                             DATA.W    0xfbdc   ;  'F-line' opcode (unassigned)
00001C46   fbe2                             DATA.W    0xfbe2   ;  'F-line' opcode (unassigned)
00001C48   fbe8                             DATA.W    0xfbe8   ;  'F-line' opcode (unassigned)
00001C4A   fbee                             DATA.W    0xfbee   ;  'F-line' opcode (unassigned)
00001C4C   fbf6                             DATA.W    0xfbf6   ;  'F-line' opcode (unassigned)
00001C4E   fbfc                             DATA.W    0xfbfc   ;  'F-line' opcode (unassigned)
00001C50   fc02                             DATA.W    0xfc02   ;  'F-line' opcode (unassigned)
00001C52   fc08                             DATA.W    0xfc08   ;  'F-line' opcode (unassigned)
00001C54   fc0e                             DATA.W    0xfc0e   ;  'F-line' opcode (unassigned)
00001C56   fc14                             DATA.W    0xfc14   ;  'F-line' opcode (unassigned)
00001C58   fc1a                             DATA.W    0xfc1a   ;  'F-line' opcode (unassigned)
00001C5A   fc20                             DATA.W    0xfc20   ;  'F-line' opcode (unassigned)
00001C5C   fc28                             DATA.W    0xfc28   ;  'F-line' opcode (unassigned)
00001C5E   fc2e                             DATA.W    0xfc2e   ;  'F-line' opcode (unassigned)
00001C60   fc34                             DATA.W    0xfc34   ;  'F-line' opcode (unassigned)
00001C62   fc3a                             DATA.W    0xfc3a   ;  'F-line' opcode (unassigned)
00001C64   fc40                             DATA.W    0xfc40   ;  'F-line' opcode (unassigned)
00001C66   fc46                             DATA.W    0xfc46   ;  'F-line' opcode (unassigned)
00001C68   fc4c                             DATA.W    0xfc4c   ;  'F-line' opcode (unassigned)
00001C6A   fc52                             DATA.W    0xfc52   ;  'F-line' opcode (unassigned)
00001C6C   fc5a                             DATA.W    0xfc5a   ;  'F-line' opcode (unassigned)
00001C6E   fc60                             DATA.W    0xfc60   ;  'F-line' opcode (unassigned)
00001C70   fc66                             DATA.W    0xfc66   ;  'F-line' opcode (unassigned)
00001C72   fc6c                             DATA.W    0xfc6c   ;  'F-line' opcode (unassigned)
00001C74   fc72                             DATA.W    0xfc72   ;  'F-line' opcode (unassigned)
00001C76   fc78                             DATA.W    0xfc78   ;  'F-line' opcode (unassigned)
00001C78   fc7e                             DATA.W    0xfc7e   ;  'F-line' opcode (unassigned)
00001C7A   fc84                             DATA.W    0xfc84   ;  'F-line' opcode (unassigned)
00001C7C   fc8c                             DATA.W    0xfc8c   ;  'F-line' opcode (unassigned)
00001C7E   fc92                             DATA.W    0xfc92   ;  'F-line' opcode (unassigned)
00001C80   fc98                             DATA.W    0xfc98   ;  'F-line' opcode (unassigned)
00001C82   fc9e                             DATA.W    0xfc9e   ;  'F-line' opcode (unassigned)
00001C84   fca4                             DATA.W    0xfca4   ;  'F-line' opcode (unassigned)
00001C86   fcaa                             DATA.W    0xfcaa   ;  'F-line' opcode (unassigned)
00001C88   fcb0                             DATA.W    0xfcb0   ;  'F-line' opcode (unassigned)
00001C8A   fcb6                             DATA.W    0xfcb6   ;  'F-line' opcode (unassigned)
00001C8C   fcbe                             DATA.W    0xfcbe   ;  'F-line' opcode (unassigned)
00001C8E   fcc4                             DATA.W    0xfcc4   ;  'F-line' opcode (unassigned)
00001C90   fcca                             DATA.W    0xfcca   ;  'F-line' opcode (unassigned)
00001C92   fcd0                             DATA.W    0xfcd0   ;  'F-line' opcode (unassigned)
00001C94   fcd6                             DATA.W    0xfcd6   ;  'F-line' opcode (unassigned)
00001C96   fcdc                             DATA.W    0xfcdc   ;  'F-line' opcode (unassigned)
00001C98   fce2                             DATA.W    0xfce2   ;  'F-line' opcode (unassigned)
00001C9A   fce8                             DATA.W    0xfce8   ;  'F-line' opcode (unassigned)
00001C9C   fcf0                             DATA.W    0xfcf0   ;  'F-line' opcode (unassigned)
00001C9E   fcf6                             DATA.W    0xfcf6   ;  'F-line' opcode (unassigned)
00001CA0   fcfc                             DATA.W    0xfcfc   ;  'F-line' opcode (unassigned)
00001CA2   fd02                             DATA.W    0xfd02   ;  'F-line' opcode (unassigned)
00001CA4   fd08                             DATA.W    0xfd08   ;  'F-line' opcode (unassigned)
00001CA6   fd0e                             DATA.W    0xfd0e   ;  'F-line' opcode (unassigned)
00001CA8   fd14                             DATA.W    0xfd14   ;  'F-line' opcode (unassigned)

Bird Computer dasm68 dissassembler    version 1.0   Sat Jan 27 18:34:33 2024     Page 52

00001CAA   fd1a                             DATA.W    0xfd1a   ;  'F-line' opcode (unassigned)
00001CAC   fd22                             DATA.W    0xfd22   ;  'F-line' opcode (unassigned)
00001CAE   fd28                             DATA.W    0xfd28   ;  'F-line' opcode (unassigned)
00001CB0   fd2e                             DATA.W    0xfd2e   ;  'F-line' opcode (unassigned)
00001CB2   fd34                             DATA.W    0xfd34   ;  'F-line' opcode (unassigned)
00001CB4   fd3a                             DATA.W    0xfd3a   ;  'F-line' opcode (unassigned)
00001CB6   fd40                             DATA.W    0xfd40   ;  'F-line' opcode (unassigned)
00001CB8   fd46                             DATA.W    0xfd46   ;  'F-line' opcode (unassigned)
00001CBA   fd4c                             DATA.W    0xfd4c   ;  'F-line' opcode (unassigned)
00001CBC   fd54                             DATA.W    0xfd54   ;  'F-line' opcode (unassigned)
00001CBE   fd5a                             DATA.W    0xfd5a   ;  'F-line' opcode (unassigned)
00001CC0   fd60                             DATA.W    0xfd60   ;  'F-line' opcode (unassigned)
00001CC2   fd66                             DATA.W    0xfd66   ;  'F-line' opcode (unassigned)
00001CC4   fd6c                             DATA.W    0xfd6c   ;  'F-line' opcode (unassigned)
00001CC6   fd72                             DATA.W    0xfd72   ;  'F-line' opcode (unassigned)
00001CC8   fd78                             DATA.W    0xfd78   ;  'F-line' opcode (unassigned)
00001CCA   fd7e                             DATA.W    0xfd7e   ;  'F-line' opcode (unassigned)
00001CCC   fd86                             DATA.W    0xfd86   ;  'F-line' opcode (unassigned)
00001CCE   fd8c                             DATA.W    0xfd8c   ;  'F-line' opcode (unassigned)
00001CD0   fd92                             DATA.W    0xfd92   ;  'F-line' opcode (unassigned)
00001CD2   fd98                             DATA.W    0xfd98   ;  'F-line' opcode (unassigned)
00001CD4   fd9e                             DATA.W    0xfd9e   ;  'F-line' opcode (unassigned)
00001CD6   fda4                             DATA.W    0xfda4   ;  'F-line' opcode (unassigned)
00001CD8   fdaa                             DATA.W    0xfdaa   ;  'F-line' opcode (unassigned)
00001CDA   fdb0                             DATA.W    0xfdb0   ;  'F-line' opcode (unassigned)
00001CDC   fdb8                             DATA.W    0xfdb8   ;  'F-line' opcode (unassigned)
00001CDE   0000 0000                        OR.B      #0x0,D0
00001CE2   0000 0000                        OR.B      #0x0,D0
00001CE6   0000 0000                        OR.B      #0x0,D0
00001CEA   0000 0000                        OR.B      #0x0,D0
00001CEE   0000 0000                        OR.B      #0x0,D0
00001CF2   0000 0000                        OR.B      #0x0,D0
00001CF6   0000 0000                        OR.B      #0x0,D0
00001CFA   0000 0000                        OR.B      #0x0,D0
00001CFE   0000 0000                        OR.B      #0x0,D0
00001D02   0000 0000                        OR.B      #0x0,D0
00001D06   0000 0000                        OR.B      #0x0,D0
00001D0A   0000 0000                        OR.B      #0x0,D0
00001D0E   0000 0000                        OR.B      #0x0,D0
00001D12   0000 0000                        OR.B      #0x0,D0
00001D16   0000 0000                        OR.B      #0x0,D0
00001D1A   0000 0000                        OR.B      #0x0,D0
00001D1E   0000 0000                        OR.B      #0x0,D0
00001D22   0000 0000                        OR.B      #0x0,D0
00001D26   0000 0000                        OR.B      #0x0,D0
00001D2A   0000 0000                        OR.B      #0x0,D0
00001D2E   0000 0000                        OR.B      #0x0,D0
00001D32   0000 0000                        OR.B      #0x0,D0
00001D36   0000 0000                        OR.B      #0x0,D0
00001D3A   0000 0000                        OR.B      #0x0,D0
00001D3E   0000 0000                        OR.B      #0x0,D0
00001D42   0000 0000                        OR.B      #0x0,D0
00001D46   0000 0000                        OR.B      #0x0,D0
00001D4A   0000 0000                        OR.B      #0x0,D0
00001D4E   0000 0000                        OR.B      #0x0,D0
00001D52   0000 0000                        OR.B      #0x0,D0
00001D56   0000 0000                        OR.B      #0x0,D0
00001D5A   0000 0000                        OR.B      #0x0,D0

Bird Computer dasm68 dissassembler    version 1.0   Sat Jan 27 18:34:33 2024     Page 53

00001D5E   f14e                             DATA.W    0xf14e   ;  'F-line' opcode (unassigned)
00001D60   f162                             DATA.W    0xf162   ;  'F-line' opcode (unassigned)
00001D62   f176                             DATA.W    0xf176   ;  'F-line' opcode (unassigned)
00001D64   f180                             DATA.W    0xf180   ;  'F-line' opcode (unassigned)
00001D66   f192                             DATA.W    0xf192   ;  'F-line' opcode (unassigned)
00001D68   e64c                             LSR.W     #3,D4
00001D6A   e64c                             LSR.W     #3,D4
00001D6C   e64c                             LSR.W     #3,D4
00001D6E   f14e                             DATA.W    0xf14e   ;  'F-line' opcode (unassigned)
00001D70   f162                             DATA.W    0xf162   ;  'F-line' opcode (unassigned)
00001D72   f198                             DATA.W    0xf198   ;  'F-line' opcode (unassigned)
00001D74   f1a2                             DATA.W    0xf1a2   ;  'F-line' opcode (unassigned)
00001D76   0000 e64c                        OR.B      #0xe64c,D0
00001D7A   0000 e64c                        OR.B      #0xe64c,D0
00001D7E   f14e                             DATA.W    0xf14e   ;  'F-line' opcode (unassigned)
00001D80   f162                             DATA.W    0xf162   ;  'F-line' opcode (unassigned)
00001D82   f1b4                             DATA.W    0xf1b4   ;  'F-line' opcode (unassigned)
00001D84   f1be                             DATA.W    0xf1be   ;  'F-line' opcode (unassigned)
00001D86   0000 0000                        OR.B      #0x0,D0
00001D8A   e64c                             LSR.W     #3,D4
00001D8C   f1ec                             DATA.W    0xf1ec   ;  'F-line' opcode (unassigned)
00001D8E   f14e                             DATA.W    0xf14e   ;  'F-line' opcode (unassigned)
00001D90   f162                             DATA.W    0xf162   ;  'F-line' opcode (unassigned)
00001D92   f1d0                             DATA.W    0xf1d0   ;  'F-line' opcode (unassigned)
00001D94   f1da                             DATA.W    0xf1da   ;  'F-line' opcode (unassigned)
00001D96   0000 0000                        OR.B      #0x0,D0
00001D9A   e64c                             LSR.W     #3,D4
00001D9C   f1ec                             DATA.W    0xf1ec   ;  'F-line' opcode (unassigned)
00001D9E   f14e                             DATA.W    0xf14e   ;  'F-line' opcode (unassigned)
00001DA0   f162                             DATA.W    0xf162   ;  'F-line' opcode (unassigned)
00001DA2   f1f0                             DATA.W    0xf1f0   ;  'F-line' opcode (unassigned)
00001DA4   f1fa                             DATA.W    0xf1fa   ;  'F-line' opcode (unassigned)
00001DA6   0000 0000                        OR.B      #0x0,D0
00001DAA   0000 f20c                        OR.B      #0xf20c,D0
00001DAE   f14e                             DATA.W    0xf14e   ;  'F-line' opcode (unassigned)
00001DB0   f162                             DATA.W    0xf162   ;  'F-line' opcode (unassigned)
00001DB2   f234                             DATA.W    0xf234   ;  'F-line' opcode (unassigned)
00001DB4   f23e                             DATA.W    0xf23e   ;  'F-line' opcode (unassigned)
00001DB6   0000 0000                        OR.B      #0x0,D0
00001DBA   0000 f250                        OR.B      #0xf250,D0
00001DBE   0000 0000                        OR.B      #0x0,D0
00001DC2   f274                             DATA.W    0xf274   ;  'F-line' opcode (unassigned)
00001DC4   f282                             DATA.W    0xf282   ;  'F-line' opcode (unassigned)
00001DC6   0000 0000                        OR.B      #0x0,D0
00001DCA   0000 0000                        OR.B      #0x0,D0
00001DCE   f14e                             DATA.W    0xf14e   ;  'F-line' opcode (unassigned)
00001DD0   f162                             DATA.W    0xf162   ;  'F-line' opcode (unassigned)
00001DD2   f298                             DATA.W    0xf298   ;  'F-line' opcode (unassigned)
00001DD4   f2a6                             DATA.W    0xf2a6   ;  'F-line' opcode (unassigned)
00001DD6   0000 0000                        OR.B      #0x0,D0
00001DDA   0000 0000                        OR.B      #0x0,D0
00001DDE   0000 0000                        OR.B      #0x0,D0
00001DE2   0000 0000                        OR.B      #0x0,D0
00001DE6   0000 0000                        OR.B      #0x0,D0
00001DEA   0000 0000                        OR.B      #0x0,D0
00001DEE   0000 0000                        OR.B      #0x0,D0
00001DF2   0000 0000                        OR.B      #0x0,D0
00001DF6   0000 0000                        OR.B      #0x0,D0

Bird Computer dasm68 dissassembler    version 1.0   Sat Jan 27 18:34:33 2024     Page 54

00001DFA   0000 0000                        OR.B      #0x0,D0
00001DFE   0000 0000                        OR.B      #0x0,D0
00001E02   0000 0000                        OR.B      #0x0,D0
00001E06   0000 0000                        OR.B      #0x0,D0
00001E0A   0000 0000                        OR.B      #0x0,D0
00001E0E   0000 0000                        OR.B      #0x0,D0
00001E12   0000 0000                        OR.B      #0x0,D0
00001E16   0000 0000                        OR.B      #0x0,D0
00001E1A   0000 0000                        OR.B      #0x0,D0
00001E1E   f2bc                             DATA.W    0xf2bc   ;  'F-line' opcode (unassigned)
00001E20   f2d4                             DATA.W    0xf2d4   ;  'F-line' opcode (unassigned)
00001E22   f2ee                             DATA.W    0xf2ee   ;  'F-line' opcode (unassigned)
00001E24   f308                             DATA.W    0xf308   ;  'F-line' opcode (unassigned)
00001E26   0000 0000                        OR.B      #0x0,D0
00001E2A   0000 0000                        OR.B      #0x0,D0
00001E2E   f30e                             DATA.W    0xf30e   ;  'F-line' opcode (unassigned)
00001E30   f326                             DATA.W    0xf326   ;  'F-line' opcode (unassigned)
00001E32   f340                             DATA.W    0xf340   ;  'F-line' opcode (unassigned)
00001E34   f35a                             DATA.W    0xf35a   ;  'F-line' opcode (unassigned)
00001E36   0000 0000                        OR.B      #0x0,D0
00001E3A   0000 0000                        OR.B      #0x0,D0
00001E3E   f360                             DATA.W    0xf360   ;  'F-line' opcode (unassigned)
00001E40   f37e                             DATA.W    0xf37e   ;  'F-line' opcode (unassigned)
00001E42   f38e                             DATA.W    0xf38e   ;  'F-line' opcode (unassigned)
00001E44   f39a                             DATA.W    0xf39a   ;  'F-line' opcode (unassigned)
00001E46   0000 0000                        OR.B      #0x0,D0
00001E4A   0000 0000                        OR.B      #0x0,D0
00001E4E   f3a6                             DATA.W    0xf3a6   ;  'F-line' opcode (unassigned)
00001E50   f3c6                             DATA.W    0xf3c6   ;  'F-line' opcode (unassigned)
00001E52   f3d6                             DATA.W    0xf3d6   ;  'F-line' opcode (unassigned)
00001E54   f3e2                             DATA.W    0xf3e2   ;  'F-line' opcode (unassigned)
00001E56   0000 0000                        OR.B      #0x0,D0
00001E5A   0000 0000                        OR.B      #0x0,D0
00001E5E   0000 0000                        OR.B      #0x0,D0
00001E62   0000 0000                        OR.B      #0x0,D0
00001E66   0000 0000                        OR.B      #0x0,D0
00001E6A   0000 0000                        OR.B      #0x0,D0
00001E6E   0000 0000                        OR.B      #0x0,D0
00001E72   0000 0000                        OR.B      #0x0,D0
00001E76   0000 0000                        OR.B      #0x0,D0
00001E7A   0000 0000                        OR.B      #0x0,D0
00001E7E   0000 0000                        OR.B      #0x0,D0
00001E82   0000 0000                        OR.B      #0x0,D0
00001E86   0000 0000                        OR.B      #0x0,D0
00001E8A   0000 0000                        OR.B      #0x0,D0
00001E8E   0000 0000                        OR.B      #0x0,D0
00001E92   0000 0000                        OR.B      #0x0,D0
00001E96   0000 0000                        OR.B      #0x0,D0
00001E9A   0000 0000                        OR.B      #0x0,D0
00001E9E   0000 0000                        OR.B      #0x0,D0
00001EA2   0000 0000                        OR.B      #0x0,D0
00001EA6   0000 0000                        OR.B      #0x0,D0
00001EAA   0000 0000                        OR.B      #0x0,D0
00001EAE   0000 0000                        OR.B      #0x0,D0
00001EB2   0000 0000                        OR.B      #0x0,D0
00001EB6   0000 0000                        OR.B      #0x0,D0
00001EBA   0000 0000                        OR.B      #0x0,D0
00001EBE   0000 0000                        OR.B      #0x0,D0

Bird Computer dasm68 dissassembler    version 1.0   Sat Jan 27 18:34:33 2024     Page 55

00001EC2   0000 0000                        OR.B      #0x0,D0
00001EC6   0000 0000                        OR.B      #0x0,D0
00001ECA   0000 0000                        OR.B      #0x0,D0
00001ECE   0000 0000                        OR.B      #0x0,D0
00001ED2   0000 0000                        OR.B      #0x0,D0
00001ED6   0000 0000                        OR.B      #0x0,D0
00001EDA   0000 0000                        OR.B      #0x0,D0
00001EDE   000d 666c                        OR.B      #0x666c,A5
00001EE2   7031                             MOVEQ     #0x31,D0
00001EE4   5f62                             SUBQ.W    #7,-(A2)
00001EE6   696f                             BVS       B_1f57
00001EE8   735f                             MOVEQ     #0x5f,D1
00001EEA   6364                             BLS       B_1f50
00001EEC   6500 001d                        BCS.L     B_1f0b
00001EF0   6669                             BNE       B_1f5b
00001EF2   6c65                             BGE       B_1f59
00001EF4   2046                             MOVE      D6,A0
00001EF6   4c50                             DATA.W    0x4c50  ; Unrecognized
00001EF8   315f 4249                        MOVE.W    (A7)+,(D_4249,A0)
00001EFC   4f53                             DATA.W    0x4f53  ; Unrecognized
00001EFE   5f43                             SUBQ.W    #7,D3
00001F00   4445                             NEG.W     D5
00001F02   206e 6f74                        MOVE      (D_6f74,A6),A0
00001F06   2066                             MOVE      -(A6),A0
00001F08   6f75                             BLE       B_1f7f
00001F0A   6e64                             BGT       B_1f70
00001F0C   0a00 0a00                        EOR.B     #0xa00,D0
00001F10   0000 0000                        OR.B      #0x0,D0
00001F14   0000 0000                        OR.B      #0x0,D0
00001F18   0000 0000                        OR.B      #0x0,D0
00001F1C   0000 0000                        OR.B      #0x0,D0
00001F20   0000 0000                        OR.B      #0x0,D0
00001F24   0000 0000                        OR.B      #0x0,D0
00001F28   0000 0000                        OR.B      #0x0,D0
00001F2C   0000 0000                        OR.B      #0x0,D0
